//
// Generated by LLVM NVPTX Back-End
//

.version 3.2
.target sm_20, texmode_independent
.address_size 64

.func _ZN2cl4sycl6detail11index_arrayC2E__ns1mmm
(
	.param .b64 _ZN2cl4sycl6detail11index_arrayC2E__ns1mmm_param_0,
	.param .b64 _ZN2cl4sycl6detail11index_arrayC2E__ns1mmm_param_1,
	.param .b64 _ZN2cl4sycl6detail11index_arrayC2E__ns1mmm_param_2,
	.param .b64 _ZN2cl4sycl6detail11index_arrayC2E__ns1mmm_param_3
)
;
.func _ZN2cl4sycl6detail9item_baseC2E__ns1NS1_11index_arrayES3_
(
	.param .b64 _ZN2cl4sycl6detail9item_baseC2E__ns1NS1_11index_arrayES3__param_0,
	.param .align 8 .b8 _ZN2cl4sycl6detail9item_baseC2E__ns1NS1_11index_arrayES3__param_1[24],
	.param .align 8 .b8 _ZN2cl4sycl6detail9item_baseC2E__ns1NS1_11index_arrayES3__param_2[24]
)
;
.func _ZN2cl4sycl2idILi1EEC2E__ns1RKNS0_6detail9item_baseE
(
	.param .b64 _ZN2cl4sycl2idILi1EEC2E__ns1RKNS0_6detail9item_baseE_param_0,
	.param .b64 _ZN2cl4sycl2idILi1EEC2E__ns1RKNS0_6detail9item_baseE_param_1
)
;
.func _ZN2cl4sycl6detail9item_baseC2E__ns1NS1_11index_arrayES3_S3_
(
	.param .b64 _ZN2cl4sycl6detail9item_baseC2E__ns1NS1_11index_arrayES3_S3__param_0,
	.param .align 8 .b8 _ZN2cl4sycl6detail9item_baseC2E__ns1NS1_11index_arrayES3_S3__param_1[24],
	.param .align 8 .b8 _ZN2cl4sycl6detail9item_baseC2E__ns1NS1_11index_arrayES3_S3__param_2[24],
	.param .align 8 .b8 _ZN2cl4sycl6detail9item_baseC2E__ns1NS1_11index_arrayES3_S3__param_3[24]
)
;
.func  (.param .b64 func_retval0) _ZN2cl4sycl6detail11index_arrayixE__ns1j
(
	.param .b64 _ZN2cl4sycl6detail11index_arrayixE__ns1j_param_0,
	.param .b32 _ZN2cl4sycl6detail11index_arrayixE__ns1j_param_1
)
;
.func  (.param .b64 func_retval0) _ZNK2cl4sycl6detail16index_array_base3getE__ns1j
(
	.param .b64 _ZNK2cl4sycl6detail16index_array_base3getE__ns1j_param_0,
	.param .b32 _ZNK2cl4sycl6detail16index_array_base3getE__ns1j_param_1
)
;
.func  (.param .align 4 .b8 func_retval0[12]) _ZNK2cl4sycl6detail15accessor_commonI5PointLi1ELNS0_6access4modeE0ELNS4_6targetE1ELNS4_11placeholderE0EEixIS3_vEE__ns1S3_m
(
	.param .b64 _ZNK2cl4sycl6detail15accessor_commonI5PointLi1ELNS0_6access4modeE0ELNS4_6targetE1ELNS4_11placeholderE0EEixIS3_vEE__ns1S3_m_param_0,
	.param .b64 _ZNK2cl4sycl6detail15accessor_commonI5PointLi1ELNS0_6access4modeE0ELNS4_6targetE1ELNS4_11placeholderE0EEixIS3_vEE__ns1S3_m_param_1
)
;
.func  (.param .align 8 .b8 func_retval0[32]) _ZNK2cl4sycl6detail15accessor_commonIbLi2ELNS0_6access4modeE1ELNS3_6targetE1ELNS3_11placeholderE0EEixIbvEE__ns1NS0_12subscript_opILi1EbLi2ELS4_1ELS5_1ELS6_0EEEm
(
	.param .b64 _ZNK2cl4sycl6detail15accessor_commonIbLi2ELNS0_6access4modeE1ELNS3_6targetE1ELNS3_11placeholderE0EEixIbvEE__ns1NS0_12subscript_opILi1EbLi2ELS4_1ELS5_1ELS6_0EEEm_param_0,
	.param .b64 _ZNK2cl4sycl6detail15accessor_commonIbLi2ELNS0_6access4modeE1ELNS3_6targetE1ELNS3_11placeholderE0EEixIbvEE__ns1NS0_12subscript_opILi1EbLi2ELS4_1ELS5_1ELS6_0EEEm_param_1
)
;
.func  (.param .b64 func_retval0) _ZN2cl4sycl12subscript_opILi1EbLi2ELNS0_6access4modeE1ELNS2_6targetE1ELNS2_11placeholderE0EEixIbvEE__ns1RU3AS1bm
(
	.param .b64 _ZN2cl4sycl12subscript_opILi1EbLi2ELNS0_6access4modeE1ELNS2_6targetE1ELNS2_11placeholderE0EEixIbvEE__ns1RU3AS1bm_param_0,
	.param .b64 _ZN2cl4sycl12subscript_opILi1EbLi2ELNS0_6access4modeE1ELNS2_6targetE1ELNS2_11placeholderE0EEixIbvEE__ns1RU3AS1bm_param_1
)
;
.func  (.param .b64 func_retval0) _ZNK2cl4sycl6detail11index_arrayixE__ns1j
(
	.param .b64 _ZNK2cl4sycl6detail11index_arrayixE__ns1j_param_0,
	.param .b32 _ZNK2cl4sycl6detail11index_arrayixE__ns1j_param_1
)
;
.func  (.param .b64 func_retval0) _ZNK2cl4sycl6detail15accessor_commonI5PointLi1ELNS0_6access4modeE0ELNS4_6targetE1ELNS4_11placeholderE0EE14get_device_ptrE__ns1v
(
	.param .b64 _ZNK2cl4sycl6detail15accessor_commonI5PointLi1ELNS0_6access4modeE0ELNS4_6targetE1ELNS4_11placeholderE0EE14get_device_ptrE__ns1v_param_0
)
;
.func  (.param .b64 func_retval0) _ZNK2cl4sycl10device_argI5PointLi1ELNS0_6access4modeE0ELNS3_6targetE1ELNS3_11placeholderE0EE7get_ptrE__ns1v
(
	.param .b64 _ZNK2cl4sycl10device_argI5PointLi1ELNS0_6access4modeE0ELNS3_6targetE1ELNS3_11placeholderE0EE7get_ptrE__ns1v_param_0
)
;
.func _ZN2cl4sycl9multi_ptrI5PointLNS0_6access13address_spaceE1EEC2E__ns1PU3AS1S2_
(
	.param .b64 _ZN2cl4sycl9multi_ptrI5PointLNS0_6access13address_spaceE1EEC2E__ns1PU3AS1S2__param_0,
	.param .b64 _ZN2cl4sycl9multi_ptrI5PointLNS0_6access13address_spaceE1EEC2E__ns1PU3AS1S2__param_1
)
;
.func  (.param .b64 func_retval0) _ZNK2cl4sycl6detail14multi_ptr_baseI5PointLNS0_6access13address_spaceE1EEcvPS3_E__ns1v
(
	.param .b64 _ZNK2cl4sycl6detail14multi_ptr_baseI5PointLNS0_6access13address_spaceE1EEcvPS3_E__ns1v_param_0
)
;
.func _ZN2cl4sycl6detail14multi_ptr_baseI5PointLNS0_6access13address_spaceE1EEC2E__ns1PU3AS1S3_
(
	.param .b64 _ZN2cl4sycl6detail14multi_ptr_baseI5PointLNS0_6access13address_spaceE1EEC2E__ns1PU3AS1S3__param_0,
	.param .b64 _ZN2cl4sycl6detail14multi_ptr_baseI5PointLNS0_6access13address_spaceE1EEC2E__ns1PU3AS1S3__param_1
)
;
.func  (.param .b64 func_retval0) _ZNK2cl4sycl6detail14multi_ptr_baseI5PointLNS0_6access13address_spaceE1EE20get_pointer_internalE__ns1v
(
	.param .b64 _ZNK2cl4sycl6detail14multi_ptr_baseI5PointLNS0_6access13address_spaceE1EE20get_pointer_internalE__ns1v_param_0
)
;
.func _ZN2cl4sycl12subscript_opILi1EbLi2ELNS0_6access4modeE1ELNS2_6targetE1ELNS2_11placeholderE0EEC2E__ns1RKNS0_6detail15accessor_commonIbLi2ELS3_1ELS4_1ELS5_0EEENS7_11index_arrayE
(
	.param .b64 _ZN2cl4sycl12subscript_opILi1EbLi2ELNS0_6access4modeE1ELNS2_6targetE1ELNS2_11placeholderE0EEC2E__ns1RKNS0_6detail15accessor_commonIbLi2ELS3_1ELS4_1ELS5_0EEENS7_11index_arrayE_param_0,
	.param .b64 _ZN2cl4sycl12subscript_opILi1EbLi2ELNS0_6access4modeE1ELNS2_6targetE1ELNS2_11placeholderE0EEC2E__ns1RKNS0_6detail15accessor_commonIbLi2ELS3_1ELS4_1ELS5_0EEENS7_11index_arrayE_param_1,
	.param .align 8 .b8 _ZN2cl4sycl12subscript_opILi1EbLi2ELNS0_6access4modeE1ELNS2_6targetE1ELNS2_11placeholderE0EEC2E__ns1RKNS0_6detail15accessor_commonIbLi2ELS3_1ELS4_1ELS5_0EEENS7_11index_arrayE_param_2[24]
)
;
.func  (.param .b64 func_retval0) _ZNK2cl4sycl6detail15accessor_commonIbLi2ELNS0_6access4modeE1ELNS3_6targetE1ELNS3_11placeholderE0EEixIbvEE__ns1RU3AS1bNS0_2idILi2EEE
(
	.param .b64 _ZNK2cl4sycl6detail15accessor_commonIbLi2ELNS0_6access4modeE1ELNS3_6targetE1ELNS3_11placeholderE0EEixIbvEE__ns1RU3AS1bNS0_2idILi2EEE_param_0,
	.param .align 8 .b8 _ZNK2cl4sycl6detail15accessor_commonIbLi2ELNS0_6access4modeE1ELNS3_6targetE1ELNS3_11placeholderE0EEixIbvEE__ns1RU3AS1bNS0_2idILi2EEE_param_1[24]
)
;
.func _ZN2cl4sycl2idILi2EEC2E__ns1RKNS0_6detail11index_arrayE
(
	.param .b64 _ZN2cl4sycl2idILi2EEC2E__ns1RKNS0_6detail11index_arrayE_param_0,
	.param .b64 _ZN2cl4sycl2idILi2EEC2E__ns1RKNS0_6detail11index_arrayE_param_1
)
;
.func  (.param .b64 func_retval0) _ZN2cl4sycl6detail16index_array_baseixE__ns1j
(
	.param .b64 _ZN2cl4sycl6detail16index_array_baseixE__ns1j_param_0,
	.param .b32 _ZN2cl4sycl6detail16index_array_baseixE__ns1j_param_1
)
;
.func  (.param .b64 func_retval0) _ZNK2cl4sycl18device_index_arrayixE__ns1m
(
	.param .b64 _ZNK2cl4sycl18device_index_arrayixE__ns1m_param_0,
	.param .b64 _ZNK2cl4sycl18device_index_arrayixE__ns1m_param_1
)
;
.func  (.param .b64 func_retval0) _ZNK2cl4sycl6detail15accessor_commonIbLi2ELNS0_6access4modeE1ELNS3_6targetE1ELNS3_11placeholderE0EE14get_device_ptrE__ns1v
(
	.param .b64 _ZNK2cl4sycl6detail15accessor_commonIbLi2ELNS0_6access4modeE1ELNS3_6targetE1ELNS3_11placeholderE0EE14get_device_ptrE__ns1v_param_0
)
;
.func  (.param .b64 func_retval0) _ZNK2cl4sycl10device_argIbLi2ELNS0_6access4modeE1ELNS2_6targetE1ELNS2_11placeholderE0EE7get_ptrE__ns1v
(
	.param .b64 _ZNK2cl4sycl10device_argIbLi2ELNS0_6access4modeE1ELNS2_6targetE1ELNS2_11placeholderE0EE7get_ptrE__ns1v_param_0
)
;
.func _ZN2cl4sycl9multi_ptrIbLNS0_6access13address_spaceE1EEC2E__ns1PU3AS1b
(
	.param .b64 _ZN2cl4sycl9multi_ptrIbLNS0_6access13address_spaceE1EEC2E__ns1PU3AS1b_param_0,
	.param .b64 _ZN2cl4sycl9multi_ptrIbLNS0_6access13address_spaceE1EEC2E__ns1PU3AS1b_param_1
)
;
.func  (.param .b64 func_retval0) _ZNK2cl4sycl6detail14multi_ptr_baseIbLNS0_6access13address_spaceE1EEcvPbE__ns1v
(
	.param .b64 _ZNK2cl4sycl6detail14multi_ptr_baseIbLNS0_6access13address_spaceE1EEcvPbE__ns1v_param_0
)
;
.func _ZN2cl4sycl6detail14multi_ptr_baseIbLNS0_6access13address_spaceE1EEC2E__ns1PU3AS1b
(
	.param .b64 _ZN2cl4sycl6detail14multi_ptr_baseIbLNS0_6access13address_spaceE1EEC2E__ns1PU3AS1b_param_0,
	.param .b64 _ZN2cl4sycl6detail14multi_ptr_baseIbLNS0_6access13address_spaceE1EEC2E__ns1PU3AS1b_param_1
)
;
.func  (.param .b64 func_retval0) _ZNK2cl4sycl6detail14multi_ptr_baseIbLNS0_6access13address_spaceE1EE20get_pointer_internalE__ns1v
(
	.param .b64 _ZNK2cl4sycl6detail14multi_ptr_baseIbLNS0_6access13address_spaceE1EE20get_pointer_internalE__ns1v_param_0
)
;
.func _ZN2cl4sycl2idILi2EEC2E__ns1mm
(
	.param .b64 _ZN2cl4sycl2idILi2EEC2E__ns1mm_param_0,
	.param .b64 _ZN2cl4sycl2idILi2EEC2E__ns1mm_param_1,
	.param .b64 _ZN2cl4sycl2idILi2EEC2E__ns1mm_param_2
)
;
.func _ZN2cl4sycl6detail21index_array_operatorsILi2ENS0_2idEEC2E__ns1mmm
(
	.param .b64 _ZN2cl4sycl6detail21index_array_operatorsILi2ENS0_2idEEC2E__ns1mmm_param_0,
	.param .b64 _ZN2cl4sycl6detail21index_array_operatorsILi2ENS0_2idEEC2E__ns1mmm_param_1,
	.param .b64 _ZN2cl4sycl6detail21index_array_operatorsILi2ENS0_2idEEC2E__ns1mmm_param_2,
	.param .b64 _ZN2cl4sycl6detail21index_array_operatorsILi2ENS0_2idEEC2E__ns1mmm_param_3
)
;
.func _ZN2cl4sycl6detail16index_array_baseC2E__ns1mmm
(
	.param .b64 _ZN2cl4sycl6detail16index_array_baseC2E__ns1mmm_param_0,
	.param .b64 _ZN2cl4sycl6detail16index_array_baseC2E__ns1mmm_param_1,
	.param .b64 _ZN2cl4sycl6detail16index_array_baseC2E__ns1mmm_param_2,
	.param .b64 _ZN2cl4sycl6detail16index_array_baseC2E__ns1mmm_param_3
)
;
.func  (.param .b64 func_retval0) _ZNK2cl4sycl6detail9item_base6get_idE__ns1i
(
	.param .b64 _ZNK2cl4sycl6detail9item_base6get_idE__ns1i_param_0,
	.param .b32 _ZNK2cl4sycl6detail9item_base6get_idE__ns1i_param_1
)
;
.func _ZN2cl4sycl6detail21index_array_operatorsILi1ENS0_2idEEC2E__ns1mmm
(
	.param .b64 _ZN2cl4sycl6detail21index_array_operatorsILi1ENS0_2idEEC2E__ns1mmm_param_0,
	.param .b64 _ZN2cl4sycl6detail21index_array_operatorsILi1ENS0_2idEEC2E__ns1mmm_param_1,
	.param .b64 _ZN2cl4sycl6detail21index_array_operatorsILi1ENS0_2idEEC2E__ns1mmm_param_2,
	.param .b64 _ZN2cl4sycl6detail21index_array_operatorsILi1ENS0_2idEEC2E__ns1mmm_param_3
)
;
.func  (.param .align 8 .b8 func_retval0[32]) _ZNK2cl4sycl6detail15accessor_commonIbLi2ELNS0_6access4modeE0ELNS3_6targetE1ELNS3_11placeholderE0EEixIbvEE__ns1NS0_12subscript_opILi1EbLi2ELS4_0ELS5_1ELS6_0EEEm
(
	.param .b64 _ZNK2cl4sycl6detail15accessor_commonIbLi2ELNS0_6access4modeE0ELNS3_6targetE1ELNS3_11placeholderE0EEixIbvEE__ns1NS0_12subscript_opILi1EbLi2ELS4_0ELS5_1ELS6_0EEEm_param_0,
	.param .b64 _ZNK2cl4sycl6detail15accessor_commonIbLi2ELNS0_6access4modeE0ELNS3_6targetE1ELNS3_11placeholderE0EEixIbvEE__ns1NS0_12subscript_opILi1EbLi2ELS4_0ELS5_1ELS6_0EEEm_param_1
)
;
.func  (.param .b32 func_retval0) _ZN2cl4sycl12subscript_opILi1EbLi2ELNS0_6access4modeE0ELNS2_6targetE1ELNS2_11placeholderE0EEixIbvEE__ns1bm
(
	.param .b64 _ZN2cl4sycl12subscript_opILi1EbLi2ELNS0_6access4modeE0ELNS2_6targetE1ELNS2_11placeholderE0EEixIbvEE__ns1bm_param_0,
	.param .b64 _ZN2cl4sycl12subscript_opILi1EbLi2ELNS0_6access4modeE0ELNS2_6targetE1ELNS2_11placeholderE0EEixIbvEE__ns1bm_param_1
)
;
.func  (.param .b32 func_retval0) _ZNK2cl4sycl6detail15accessor_commonIiLi1ELNS0_6access4modeE0ELNS3_6targetE1ELNS3_11placeholderE0EEixIivEE__ns1im
(
	.param .b64 _ZNK2cl4sycl6detail15accessor_commonIiLi1ELNS0_6access4modeE0ELNS3_6targetE1ELNS3_11placeholderE0EEixIivEE__ns1im_param_0,
	.param .b64 _ZNK2cl4sycl6detail15accessor_commonIiLi1ELNS0_6access4modeE0ELNS3_6targetE1ELNS3_11placeholderE0EEixIivEE__ns1im_param_1
)
;
.func  (.param .b64 func_retval0) _ZNK2cl4sycl6detail15accessor_commonIbLi1ELNS0_6access4modeE2ELNS3_6targetE1ELNS3_11placeholderE0EEixIbvEE__ns1RU3AS1bm
(
	.param .b64 _ZNK2cl4sycl6detail15accessor_commonIbLi1ELNS0_6access4modeE2ELNS3_6targetE1ELNS3_11placeholderE0EEixIbvEE__ns1RU3AS1bm_param_0,
	.param .b64 _ZNK2cl4sycl6detail15accessor_commonIbLi1ELNS0_6access4modeE2ELNS3_6targetE1ELNS3_11placeholderE0EEixIbvEE__ns1RU3AS1bm_param_1
)
;
.func _ZN2cl4sycl12subscript_opILi1EbLi2ELNS0_6access4modeE0ELNS2_6targetE1ELNS2_11placeholderE0EEC2E__ns1RKNS0_6detail15accessor_commonIbLi2ELS3_0ELS4_1ELS5_0EEENS7_11index_arrayE
(
	.param .b64 _ZN2cl4sycl12subscript_opILi1EbLi2ELNS0_6access4modeE0ELNS2_6targetE1ELNS2_11placeholderE0EEC2E__ns1RKNS0_6detail15accessor_commonIbLi2ELS3_0ELS4_1ELS5_0EEENS7_11index_arrayE_param_0,
	.param .b64 _ZN2cl4sycl12subscript_opILi1EbLi2ELNS0_6access4modeE0ELNS2_6targetE1ELNS2_11placeholderE0EEC2E__ns1RKNS0_6detail15accessor_commonIbLi2ELS3_0ELS4_1ELS5_0EEENS7_11index_arrayE_param_1,
	.param .align 8 .b8 _ZN2cl4sycl12subscript_opILi1EbLi2ELNS0_6access4modeE0ELNS2_6targetE1ELNS2_11placeholderE0EEC2E__ns1RKNS0_6detail15accessor_commonIbLi2ELS3_0ELS4_1ELS5_0EEENS7_11index_arrayE_param_2[24]
)
;
.func  (.param .b32 func_retval0) _ZNK2cl4sycl6detail15accessor_commonIbLi2ELNS0_6access4modeE0ELNS3_6targetE1ELNS3_11placeholderE0EEixIbvEE__ns1bNS0_2idILi2EEE
(
	.param .b64 _ZNK2cl4sycl6detail15accessor_commonIbLi2ELNS0_6access4modeE0ELNS3_6targetE1ELNS3_11placeholderE0EEixIbvEE__ns1bNS0_2idILi2EEE_param_0,
	.param .align 8 .b8 _ZNK2cl4sycl6detail15accessor_commonIbLi2ELNS0_6access4modeE0ELNS3_6targetE1ELNS3_11placeholderE0EEixIbvEE__ns1bNS0_2idILi2EEE_param_1[24]
)
;
.func  (.param .b64 func_retval0) _ZNK2cl4sycl6detail15accessor_commonIbLi2ELNS0_6access4modeE0ELNS3_6targetE1ELNS3_11placeholderE0EE14get_device_ptrE__ns1v
(
	.param .b64 _ZNK2cl4sycl6detail15accessor_commonIbLi2ELNS0_6access4modeE0ELNS3_6targetE1ELNS3_11placeholderE0EE14get_device_ptrE__ns1v_param_0
)
;
.func  (.param .b64 func_retval0) _ZNK2cl4sycl10device_argIbLi2ELNS0_6access4modeE0ELNS2_6targetE1ELNS2_11placeholderE0EE7get_ptrE__ns1v
(
	.param .b64 _ZNK2cl4sycl10device_argIbLi2ELNS0_6access4modeE0ELNS2_6targetE1ELNS2_11placeholderE0EE7get_ptrE__ns1v_param_0
)
;
.func  (.param .b64 func_retval0) _ZNK2cl4sycl6detail15accessor_commonIiLi1ELNS0_6access4modeE0ELNS3_6targetE1ELNS3_11placeholderE0EE14get_device_ptrE__ns1v
(
	.param .b64 _ZNK2cl4sycl6detail15accessor_commonIiLi1ELNS0_6access4modeE0ELNS3_6targetE1ELNS3_11placeholderE0EE14get_device_ptrE__ns1v_param_0
)
;
.func  (.param .b64 func_retval0) _ZNK2cl4sycl10device_argIiLi1ELNS0_6access4modeE0ELNS2_6targetE1ELNS2_11placeholderE0EE7get_ptrE__ns1v
(
	.param .b64 _ZNK2cl4sycl10device_argIiLi1ELNS0_6access4modeE0ELNS2_6targetE1ELNS2_11placeholderE0EE7get_ptrE__ns1v_param_0
)
;
.func _ZN2cl4sycl9multi_ptrIiLNS0_6access13address_spaceE1EEC2E__ns1PU3AS1i
(
	.param .b64 _ZN2cl4sycl9multi_ptrIiLNS0_6access13address_spaceE1EEC2E__ns1PU3AS1i_param_0,
	.param .b64 _ZN2cl4sycl9multi_ptrIiLNS0_6access13address_spaceE1EEC2E__ns1PU3AS1i_param_1
)
;
.func  (.param .b64 func_retval0) _ZNK2cl4sycl6detail14multi_ptr_baseIiLNS0_6access13address_spaceE1EEcvPiE__ns1v
(
	.param .b64 _ZNK2cl4sycl6detail14multi_ptr_baseIiLNS0_6access13address_spaceE1EEcvPiE__ns1v_param_0
)
;
.func _ZN2cl4sycl6detail14multi_ptr_baseIiLNS0_6access13address_spaceE1EEC2E__ns1PU3AS1i
(
	.param .b64 _ZN2cl4sycl6detail14multi_ptr_baseIiLNS0_6access13address_spaceE1EEC2E__ns1PU3AS1i_param_0,
	.param .b64 _ZN2cl4sycl6detail14multi_ptr_baseIiLNS0_6access13address_spaceE1EEC2E__ns1PU3AS1i_param_1
)
;
.func  (.param .b64 func_retval0) _ZNK2cl4sycl6detail14multi_ptr_baseIiLNS0_6access13address_spaceE1EE20get_pointer_internalE__ns1v
(
	.param .b64 _ZNK2cl4sycl6detail14multi_ptr_baseIiLNS0_6access13address_spaceE1EE20get_pointer_internalE__ns1v_param_0
)
;
.func  (.param .b64 func_retval0) _ZNK2cl4sycl6detail15accessor_commonIbLi1ELNS0_6access4modeE2ELNS3_6targetE1ELNS3_11placeholderE0EE14get_device_ptrE__ns1v
(
	.param .b64 _ZNK2cl4sycl6detail15accessor_commonIbLi1ELNS0_6access4modeE2ELNS3_6targetE1ELNS3_11placeholderE0EE14get_device_ptrE__ns1v_param_0
)
;
.func  (.param .b64 func_retval0) _ZNK2cl4sycl10device_argIbLi1ELNS0_6access4modeE2ELNS2_6targetE1ELNS2_11placeholderE0EE7get_ptrE__ns1v
(
	.param .b64 _ZNK2cl4sycl10device_argIbLi1ELNS0_6access4modeE2ELNS2_6targetE1ELNS2_11placeholderE0EE7get_ptrE__ns1v_param_0
)
;
                                        // -- Begin function _ZN2cl4sycl6memcpyIccyEE__ns1vPcPKcy
                                        // @_ZN2cl4sycl6memcpyIccyEE__ns1vPcPKcy
.func _ZN2cl4sycl6memcpyIccyEE__ns1vPcPKcy(
	.param .b64 _ZN2cl4sycl6memcpyIccyEE__ns1vPcPKcy_param_0,
	.param .b64 _ZN2cl4sycl6memcpyIccyEE__ns1vPcPKcy_param_1,
	.param .b64 _ZN2cl4sycl6memcpyIccyEE__ns1vPcPKcy_param_2
)
{
	.local .align 8 .b8 	__local_depot0[32];
	.reg .b64 	%SP;
	.reg .b64 	%SPL;
	.reg .pred 	%p<2>;
	.reg .b16 	%rs<2>;
	.reg .b64 	%rd<14>;

// %bb.0:
	mov.u64 	%SPL, __local_depot0;
	cvta.local.u64 	%SP, %SPL;
	ld.param.u64 	%rd3, [_ZN2cl4sycl6memcpyIccyEE__ns1vPcPKcy_param_2];
	ld.param.u64 	%rd2, [_ZN2cl4sycl6memcpyIccyEE__ns1vPcPKcy_param_1];
	ld.param.u64 	%rd1, [_ZN2cl4sycl6memcpyIccyEE__ns1vPcPKcy_param_0];
	st.u64 	[%SP+0], %rd1;
	st.u64 	[%SP+8], %rd2;
	st.u64 	[%SP+16], %rd3;
	mov.u64 	%rd4, 0;
	st.u64 	[%SP+24], %rd4;
	bra.uni 	LBB0_1;
LBB0_1:                                 // =>This Inner Loop Header: Depth=1
	ld.u64 	%rd5, [%SP+24];
	ld.u64 	%rd6, [%SP+16];
	setp.ge.u64 	%p1, %rd5, %rd6;
	@%p1 bra 	LBB0_4;
	bra.uni 	LBB0_2;
LBB0_2:                                 //   in Loop: Header=BB0_1 Depth=1
	ld.u64 	%rd7, [%SP+8];
	ld.u64 	%rd8, [%SP+24];
	add.s64 	%rd9, %rd7, %rd8;
	ld.u8 	%rs1, [%rd9];
	ld.u64 	%rd10, [%SP+0];
	add.s64 	%rd11, %rd10, %rd8;
	st.u8 	[%rd11], %rs1;
	bra.uni 	LBB0_3;
LBB0_3:                                 //   in Loop: Header=BB0_1 Depth=1
	ld.u64 	%rd12, [%SP+24];
	add.s64 	%rd13, %rd12, 1;
	st.u64 	[%SP+24], %rd13;
	bra.uni 	LBB0_1;
LBB0_4:
	ret;
}
                                        // -- End function
.func _ZN2cl4sycl6memcpyIcU3AS1cyEE__ns1vPcPU3AS1Kcy(
	.param .b64 _ZN2cl4sycl6memcpyIcU3AS1cyEE__ns1vPcPU3AS1Kcy_param_0,
	.param .b64 _ZN2cl4sycl6memcpyIcU3AS1cyEE__ns1vPcPU3AS1Kcy_param_1,
	.param .b64 _ZN2cl4sycl6memcpyIcU3AS1cyEE__ns1vPcPU3AS1Kcy_param_2
)                                       // -- Begin function _ZN2cl4sycl6memcpyIcU3AS1cyEE__ns1vPcPU3AS1Kcy
                                        // @_ZN2cl4sycl6memcpyIcU3AS1cyEE__ns1vPcPU3AS1Kcy
{
	.local .align 8 .b8 	__local_depot1[32];
	.reg .b64 	%SP;
	.reg .b64 	%SPL;
	.reg .pred 	%p<2>;
	.reg .b16 	%rs<2>;
	.reg .b64 	%rd<14>;

// %bb.0:
	mov.u64 	%SPL, __local_depot1;
	cvta.local.u64 	%SP, %SPL;
	ld.param.u64 	%rd3, [_ZN2cl4sycl6memcpyIcU3AS1cyEE__ns1vPcPU3AS1Kcy_param_2];
	ld.param.u64 	%rd2, [_ZN2cl4sycl6memcpyIcU3AS1cyEE__ns1vPcPU3AS1Kcy_param_1];
	ld.param.u64 	%rd1, [_ZN2cl4sycl6memcpyIcU3AS1cyEE__ns1vPcPU3AS1Kcy_param_0];
	st.u64 	[%SP+0], %rd1;
	st.u64 	[%SP+8], %rd2;
	st.u64 	[%SP+16], %rd3;
	mov.u64 	%rd4, 0;
	st.u64 	[%SP+24], %rd4;
	bra.uni 	LBB1_1;
LBB1_1:                                 // =>This Inner Loop Header: Depth=1
	ld.u64 	%rd5, [%SP+24];
	ld.u64 	%rd6, [%SP+16];
	setp.ge.u64 	%p1, %rd5, %rd6;
	@%p1 bra 	LBB1_4;
	bra.uni 	LBB1_2;
LBB1_2:                                 //   in Loop: Header=BB1_1 Depth=1
	ld.u64 	%rd7, [%SP+8];
	ld.u64 	%rd8, [%SP+24];
	add.s64 	%rd9, %rd7, %rd8;
	ld.global.u8 	%rs1, [%rd9];
	ld.u64 	%rd10, [%SP+0];
	add.s64 	%rd11, %rd10, %rd8;
	st.u8 	[%rd11], %rs1;
	bra.uni 	LBB1_3;
LBB1_3:                                 //   in Loop: Header=BB1_1 Depth=1
	ld.u64 	%rd12, [%SP+24];
	add.s64 	%rd13, %rd12, 1;
	st.u64 	[%SP+24], %rd13;
	bra.uni 	LBB1_1;
LBB1_4:
	ret;
}
                                        // -- End function
	// .globl	_ZN2cl4sycl6detail13get_global_idE__ns1j // -- Begin function _ZN2cl4sycl6detail13get_global_idE__ns1j
.func  (.param .b64 func_retval0) _ZN2cl4sycl6detail13get_global_idE__ns1j(
	.param .b32 _ZN2cl4sycl6detail13get_global_idE__ns1j_param_0
)                                       // @_ZN2cl4sycl6detail13get_global_idE__ns1j
{
	.local .align 4 .b8 	__local_depot2[4];
	.reg .b64 	%SP;
	.reg .b64 	%SPL;
	.reg .pred 	%p<4>;
	.reg .b32 	%r<20>;
	.reg .b64 	%rd<4>;

// %bb.0:
	mov.u64 	%SPL, __local_depot2;
	cvta.local.u64 	%SP, %SPL;
	ld.param.u32 	%r9, [_ZN2cl4sycl6detail13get_global_idE__ns1j_param_0];
	st.u32 	[%SP+0], %r9;
	mov.u32 	%r10, 0;
	ld.u32 	%r11, [%SP+0];
	setp.eq.s32 	%p1, %r11, 0;
	@%p1 bra 	LBB2_1;
	bra.uni 	LBB2_5;
LBB2_5:
	setp.eq.s32 	%p2, %r11, 1;
	@%p2 bra 	LBB2_2;
	bra.uni 	LBB2_6;
LBB2_6:
	setp.eq.s32 	%p3, %r11, 2;
	mov.u32 	%r18, %r10;
	mov.u32 	%r19, %r10;
	@%p3 bra 	LBB2_3;
	bra.uni 	LBB2_4;
LBB2_1:
	mov.u32 	%r16, %ctaid.x;
	mov.u32 	%r17, %ntid.x;
	mul.lo.s32 	%r1, %r17, %r16;
	mov.u32 	%r2, %tid.x;
	mov.u32 	%r18, %r1;
	mov.u32 	%r19, %r2;
	bra.uni 	LBB2_4;
LBB2_2:
	mov.u32 	%r14, %ctaid.y;
	mov.u32 	%r15, %ntid.y;
	mul.lo.s32 	%r3, %r15, %r14;
	mov.u32 	%r4, %tid.y;
	mov.u32 	%r18, %r3;
	mov.u32 	%r19, %r4;
	bra.uni 	LBB2_4;
LBB2_3:
	mov.u32 	%r12, %ctaid.z;
	mov.u32 	%r13, %ntid.z;
	mul.lo.s32 	%r5, %r13, %r12;
	mov.u32 	%r6, %tid.z;
	mov.u32 	%r18, %r5;
	mov.u32 	%r19, %r6;
	bra.uni 	LBB2_4;
LBB2_4:
	mov.u32 	%r8, %r19;
	mov.u32 	%r7, %r18;
	cvt.u64.u32 	%rd1, %r7;
	cvt.u64.u32 	%rd2, %r8;
	add.s64 	%rd3, %rd2, %rd1;
	st.param.b64 	[func_retval0+0], %rd3;
	ret;
}
                                        // -- End function
	// .globl	_ZN2cl4sycl6detail15get_global_sizeE__ns1j // -- Begin function _ZN2cl4sycl6detail15get_global_sizeE__ns1j
.func  (.param .b64 func_retval0) _ZN2cl4sycl6detail15get_global_sizeE__ns1j(
	.param .b32 _ZN2cl4sycl6detail15get_global_sizeE__ns1j_param_0
)                                       // @_ZN2cl4sycl6detail15get_global_sizeE__ns1j
{
	.local .align 4 .b8 	__local_depot3[4];
	.reg .b64 	%SP;
	.reg .b64 	%SPL;
	.reg .pred 	%p<4>;
	.reg .b32 	%r<15>;
	.reg .b64 	%rd<2>;

// %bb.0:
	mov.u64 	%SPL, __local_depot3;
	cvta.local.u64 	%SP, %SPL;
	ld.param.u32 	%r9, [_ZN2cl4sycl6detail15get_global_sizeE__ns1j_param_0];
	st.u32 	[%SP+0], %r9;
	mov.u32 	%r10, 0;
	ld.u32 	%r11, [%SP+0];
	setp.eq.s32 	%p1, %r11, 0;
	@%p1 bra 	LBB3_1;
	bra.uni 	LBB3_5;
LBB3_5:
	setp.eq.s32 	%p2, %r11, 1;
	@%p2 bra 	LBB3_2;
	bra.uni 	LBB3_6;
LBB3_6:
	setp.eq.s32 	%p3, %r11, 2;
	mov.u32 	%r13, %r10;
	mov.u32 	%r14, %r10;
	@%p3 bra 	LBB3_3;
	bra.uni 	LBB3_4;
LBB3_1:
	mov.u32 	%r1, %nctaid.x;
	mov.u32 	%r2, %ntid.x;
	mov.u32 	%r13, %r1;
	mov.u32 	%r14, %r2;
	bra.uni 	LBB3_4;
LBB3_2:
	mov.u32 	%r3, %nctaid.y;
	mov.u32 	%r4, %ntid.y;
	mov.u32 	%r13, %r3;
	mov.u32 	%r14, %r4;
	bra.uni 	LBB3_4;
LBB3_3:
	mov.u32 	%r5, %nctaid.z;
	mov.u32 	%r6, %ntid.z;
	mov.u32 	%r13, %r5;
	mov.u32 	%r14, %r6;
	bra.uni 	LBB3_4;
LBB3_4:
	mov.u32 	%r8, %r14;
	mov.u32 	%r7, %r13;
	mul.lo.s32 	%r12, %r8, %r7;
	cvt.u64.u32 	%rd1, %r12;
	st.param.b64 	[func_retval0+0], %rd1;
	ret;
}
                                        // -- End function
	// .globl	_ZN2cl4sycl6detail32construct_linear_row_major_indexILm2EEE__ns1mmmmmmm // -- Begin function _ZN2cl4sycl6detail32construct_linear_row_major_indexILm2EEE__ns1mmmmmmm
.func  (.param .b64 func_retval0) _ZN2cl4sycl6detail32construct_linear_row_major_indexILm2EEE__ns1mmmmmmm(
	.param .b64 _ZN2cl4sycl6detail32construct_linear_row_major_indexILm2EEE__ns1mmmmmmm_param_0,
	.param .b64 _ZN2cl4sycl6detail32construct_linear_row_major_indexILm2EEE__ns1mmmmmmm_param_1,
	.param .b64 _ZN2cl4sycl6detail32construct_linear_row_major_indexILm2EEE__ns1mmmmmmm_param_2,
	.param .b64 _ZN2cl4sycl6detail32construct_linear_row_major_indexILm2EEE__ns1mmmmmmm_param_3,
	.param .b64 _ZN2cl4sycl6detail32construct_linear_row_major_indexILm2EEE__ns1mmmmmmm_param_4,
	.param .b64 _ZN2cl4sycl6detail32construct_linear_row_major_indexILm2EEE__ns1mmmmmmm_param_5
)                                       // @_ZN2cl4sycl6detail32construct_linear_row_major_indexILm2EEE__ns1mmmmmmm
{
	.local .align 8 .b8 	__local_depot4[48];
	.reg .b64 	%SP;
	.reg .b64 	%SPL;
	.reg .b64 	%rd<12>;

// %bb.0:
	mov.u64 	%SPL, __local_depot4;
	cvta.local.u64 	%SP, %SPL;
	ld.param.u64 	%rd6, [_ZN2cl4sycl6detail32construct_linear_row_major_indexILm2EEE__ns1mmmmmmm_param_5];
	ld.param.u64 	%rd5, [_ZN2cl4sycl6detail32construct_linear_row_major_indexILm2EEE__ns1mmmmmmm_param_4];
	ld.param.u64 	%rd4, [_ZN2cl4sycl6detail32construct_linear_row_major_indexILm2EEE__ns1mmmmmmm_param_3];
	ld.param.u64 	%rd3, [_ZN2cl4sycl6detail32construct_linear_row_major_indexILm2EEE__ns1mmmmmmm_param_2];
	ld.param.u64 	%rd2, [_ZN2cl4sycl6detail32construct_linear_row_major_indexILm2EEE__ns1mmmmmmm_param_1];
	ld.param.u64 	%rd1, [_ZN2cl4sycl6detail32construct_linear_row_major_indexILm2EEE__ns1mmmmmmm_param_0];
	st.u64 	[%SP+0], %rd1;
	st.u64 	[%SP+8], %rd2;
	st.u64 	[%SP+16], %rd3;
	st.u64 	[%SP+24], %rd4;
	st.u64 	[%SP+32], %rd5;
	st.u64 	[%SP+40], %rd6;
	ld.u64 	%rd7, [%SP+8];
	ld.u64 	%rd8, [%SP+0];
	ld.u64 	%rd9, [%SP+32];
	mul.lo.s64 	%rd10, %rd8, %rd9;
	add.s64 	%rd11, %rd7, %rd10;
	st.param.b64 	[func_retval0+0], %rd11;
	ret;
}
                                        // -- End function
	// .globl	_ZN2cl4sycl6detail32construct_linear_row_major_indexILm3EEE__ns1mmmmmmm // -- Begin function _ZN2cl4sycl6detail32construct_linear_row_major_indexILm3EEE__ns1mmmmmmm
.func  (.param .b64 func_retval0) _ZN2cl4sycl6detail32construct_linear_row_major_indexILm3EEE__ns1mmmmmmm(
	.param .b64 _ZN2cl4sycl6detail32construct_linear_row_major_indexILm3EEE__ns1mmmmmmm_param_0,
	.param .b64 _ZN2cl4sycl6detail32construct_linear_row_major_indexILm3EEE__ns1mmmmmmm_param_1,
	.param .b64 _ZN2cl4sycl6detail32construct_linear_row_major_indexILm3EEE__ns1mmmmmmm_param_2,
	.param .b64 _ZN2cl4sycl6detail32construct_linear_row_major_indexILm3EEE__ns1mmmmmmm_param_3,
	.param .b64 _ZN2cl4sycl6detail32construct_linear_row_major_indexILm3EEE__ns1mmmmmmm_param_4,
	.param .b64 _ZN2cl4sycl6detail32construct_linear_row_major_indexILm3EEE__ns1mmmmmmm_param_5
)                                       // @_ZN2cl4sycl6detail32construct_linear_row_major_indexILm3EEE__ns1mmmmmmm
{
	.local .align 8 .b8 	__local_depot5[48];
	.reg .b64 	%SP;
	.reg .b64 	%SPL;
	.reg .b64 	%rd<17>;

// %bb.0:
	mov.u64 	%SPL, __local_depot5;
	cvta.local.u64 	%SP, %SPL;
	ld.param.u64 	%rd6, [_ZN2cl4sycl6detail32construct_linear_row_major_indexILm3EEE__ns1mmmmmmm_param_5];
	ld.param.u64 	%rd5, [_ZN2cl4sycl6detail32construct_linear_row_major_indexILm3EEE__ns1mmmmmmm_param_4];
	ld.param.u64 	%rd4, [_ZN2cl4sycl6detail32construct_linear_row_major_indexILm3EEE__ns1mmmmmmm_param_3];
	ld.param.u64 	%rd3, [_ZN2cl4sycl6detail32construct_linear_row_major_indexILm3EEE__ns1mmmmmmm_param_2];
	ld.param.u64 	%rd2, [_ZN2cl4sycl6detail32construct_linear_row_major_indexILm3EEE__ns1mmmmmmm_param_1];
	ld.param.u64 	%rd1, [_ZN2cl4sycl6detail32construct_linear_row_major_indexILm3EEE__ns1mmmmmmm_param_0];
	st.u64 	[%SP+0], %rd1;
	st.u64 	[%SP+8], %rd2;
	st.u64 	[%SP+16], %rd3;
	st.u64 	[%SP+24], %rd4;
	st.u64 	[%SP+32], %rd5;
	st.u64 	[%SP+40], %rd6;
	ld.u64 	%rd7, [%SP+16];
	ld.u64 	%rd8, [%SP+8];
	ld.u64 	%rd9, [%SP+40];
	mul.lo.s64 	%rd10, %rd8, %rd9;
	add.s64 	%rd11, %rd7, %rd10;
	ld.u64 	%rd12, [%SP+0];
	ld.u64 	%rd13, [%SP+32];
	mul.lo.s64 	%rd14, %rd12, %rd13;
	mul.lo.s64 	%rd15, %rd14, %rd9;
	add.s64 	%rd16, %rd11, %rd15;
	st.param.b64 	[func_retval0+0], %rd16;
	ret;
}
                                        // -- End function
	// .globl	_ZN2cl4sycl6detail25get_pointer_internal_typeIbLNS0_6access13address_spaceE1EEE__ns1PU3AS1bS6_ // -- Begin function _ZN2cl4sycl6detail25get_pointer_internal_typeIbLNS0_6access13address_spaceE1EEE__ns1PU3AS1bS6_
.func  (.param .b64 func_retval0) _ZN2cl4sycl6detail25get_pointer_internal_typeIbLNS0_6access13address_spaceE1EEE__ns1PU3AS1bS6_(
	.param .b64 _ZN2cl4sycl6detail25get_pointer_internal_typeIbLNS0_6access13address_spaceE1EEE__ns1PU3AS1bS6__param_0
)                                       // @_ZN2cl4sycl6detail25get_pointer_internal_typeIbLNS0_6access13address_spaceE1EEE__ns1PU3AS1bS6_
{
	.local .align 8 .b8 	__local_depot6[8];
	.reg .b64 	%SP;
	.reg .b64 	%SPL;
	.reg .b64 	%rd<3>;

// %bb.0:
	mov.u64 	%SPL, __local_depot6;
	cvta.local.u64 	%SP, %SPL;
	ld.param.u64 	%rd1, [_ZN2cl4sycl6detail25get_pointer_internal_typeIbLNS0_6access13address_spaceE1EEE__ns1PU3AS1bS6__param_0];
	st.u64 	[%SP+0], %rd1;
	ld.u64 	%rd2, [%SP+0];
	st.param.b64 	[func_retval0+0], %rd2;
	ret;
}
                                        // -- End function
	// .globl	_ZN2cl4sycl6detail25get_pointer_internal_typeI5PointLNS0_6access13address_spaceE1EEE__ns1PU3AS1S3_S7_ // -- Begin function _ZN2cl4sycl6detail25get_pointer_internal_typeI5PointLNS0_6access13address_spaceE1EEE__ns1PU3AS1S3_S7_
.func  (.param .b64 func_retval0) _ZN2cl4sycl6detail25get_pointer_internal_typeI5PointLNS0_6access13address_spaceE1EEE__ns1PU3AS1S3_S7_(
	.param .b64 _ZN2cl4sycl6detail25get_pointer_internal_typeI5PointLNS0_6access13address_spaceE1EEE__ns1PU3AS1S3_S7__param_0
)                                       // @_ZN2cl4sycl6detail25get_pointer_internal_typeI5PointLNS0_6access13address_spaceE1EEE__ns1PU3AS1S3_S7_
{
	.local .align 8 .b8 	__local_depot7[8];
	.reg .b64 	%SP;
	.reg .b64 	%SPL;
	.reg .b64 	%rd<3>;

// %bb.0:
	mov.u64 	%SPL, __local_depot7;
	cvta.local.u64 	%SP, %SPL;
	ld.param.u64 	%rd1, [_ZN2cl4sycl6detail25get_pointer_internal_typeI5PointLNS0_6access13address_spaceE1EEE__ns1PU3AS1S3_S7__param_0];
	st.u64 	[%SP+0], %rd1;
	ld.u64 	%rd2, [%SP+0];
	st.param.b64 	[func_retval0+0], %rd2;
	ret;
}
                                        // -- End function
	// .globl	_ZN2cl4sycl6detail25get_pointer_internal_typeIiLNS0_6access13address_spaceE1EEE__ns1PU3AS1iS6_ // -- Begin function _ZN2cl4sycl6detail25get_pointer_internal_typeIiLNS0_6access13address_spaceE1EEE__ns1PU3AS1iS6_
.func  (.param .b64 func_retval0) _ZN2cl4sycl6detail25get_pointer_internal_typeIiLNS0_6access13address_spaceE1EEE__ns1PU3AS1iS6_(
	.param .b64 _ZN2cl4sycl6detail25get_pointer_internal_typeIiLNS0_6access13address_spaceE1EEE__ns1PU3AS1iS6__param_0
)                                       // @_ZN2cl4sycl6detail25get_pointer_internal_typeIiLNS0_6access13address_spaceE1EEE__ns1PU3AS1iS6_
{
	.local .align 8 .b8 	__local_depot8[8];
	.reg .b64 	%SP;
	.reg .b64 	%SPL;
	.reg .b64 	%rd<3>;

// %bb.0:
	mov.u64 	%SPL, __local_depot8;
	cvta.local.u64 	%SP, %SPL;
	ld.param.u64 	%rd1, [_ZN2cl4sycl6detail25get_pointer_internal_typeIiLNS0_6access13address_spaceE1EEE__ns1PU3AS1iS6__param_0];
	st.u64 	[%SP+0], %rd1;
	ld.u64 	%rd2, [%SP+0];
	st.param.b64 	[func_retval0+0], %rd2;
	ret;
}
                                        // -- End function
	// .globl	SYCL_class_euclidean_clustering_init_radius_search // -- Begin function SYCL_class_euclidean_clustering_init_radius_search
.entry SYCL_class_euclidean_clustering_init_radius_search(
	.param .u32 SYCL_class_euclidean_clustering_init_radius_search_param_0,
	.param .u64 .ptr .global .align 4 SYCL_class_euclidean_clustering_init_radius_search_param_1,
	.param .align 4 .b8 SYCL_class_euclidean_clustering_init_radius_search_param_2[16],
	.param .align 4 .b8 SYCL_class_euclidean_clustering_init_radius_search_param_3[16],
	.param .align 4 .b8 SYCL_class_euclidean_clustering_init_radius_search_param_4[16],
	.param .u64 .ptr .global .align 1 SYCL_class_euclidean_clustering_init_radius_search_param_5,
	.param .align 4 .b8 SYCL_class_euclidean_clustering_init_radius_search_param_6[16],
	.param .align 4 .b8 SYCL_class_euclidean_clustering_init_radius_search_param_7[16],
	.param .align 4 .b8 SYCL_class_euclidean_clustering_init_radius_search_param_8[16],
	.param .f32 SYCL_class_euclidean_clustering_init_radius_search_param_9
)                                       // @SYCL_class_euclidean_clustering_init_radius_search
{
	.local .align 8 .b8 	__local_depot9[632];
	.reg .b64 	%SP;
	.reg .b64 	%SPL;
	.reg .pred 	%p<3>;
	.reg .b16 	%rs<2>;
	.reg .f32 	%f<40>;
	.reg .b32 	%r<34>;
	.reg .b64 	%rd<81>;

// %bb.0:
	mov.u64 	%SPL, __local_depot9;
	cvta.local.u64 	%SP, %SPL;
	ld.param.f32 	%f1, [SYCL_class_euclidean_clustering_init_radius_search_param_9];
	mov.b64 	%rd9, SYCL_class_euclidean_clustering_init_radius_search_param_8;
	mov.b64 	%rd8, SYCL_class_euclidean_clustering_init_radius_search_param_7;
	mov.b64 	%rd7, SYCL_class_euclidean_clustering_init_radius_search_param_6;
	ld.param.u64 	%rd6, [SYCL_class_euclidean_clustering_init_radius_search_param_5];
	mov.b64 	%rd5, SYCL_class_euclidean_clustering_init_radius_search_param_4;
	mov.b64 	%rd4, SYCL_class_euclidean_clustering_init_radius_search_param_3;
	mov.b64 	%rd3, SYCL_class_euclidean_clustering_init_radius_search_param_2;
	ld.param.u64 	%rd2, [SYCL_class_euclidean_clustering_init_radius_search_param_1];
	ld.param.u32 	%r1, [SYCL_class_euclidean_clustering_init_radius_search_param_0];
	ld.param.u32 	%r2, [SYCL_class_euclidean_clustering_init_radius_search_param_8];
	ld.param.u32 	%r3, [SYCL_class_euclidean_clustering_init_radius_search_param_8+8];
	ld.param.u32 	%r4, [SYCL_class_euclidean_clustering_init_radius_search_param_8+12];
	ld.param.u32 	%r5, [SYCL_class_euclidean_clustering_init_radius_search_param_8+4];
	add.u64 	%rd10, %SP, 0;
	or.b64  	%rd11, %rd10, 4;
	st.u32 	[%rd11], %r5;
	st.u32 	[%SP+12], %r4;
	st.u32 	[%SP+8], %r3;
	st.u32 	[%SP+0], %r2;
	ld.param.u32 	%r6, [SYCL_class_euclidean_clustering_init_radius_search_param_7];
	ld.param.u32 	%r7, [SYCL_class_euclidean_clustering_init_radius_search_param_7+8];
	ld.param.u32 	%r8, [SYCL_class_euclidean_clustering_init_radius_search_param_7+12];
	ld.param.u32 	%r9, [SYCL_class_euclidean_clustering_init_radius_search_param_7+4];
	add.u64 	%rd12, %SP, 16;
	or.b64  	%rd13, %rd12, 4;
	st.u32 	[%rd13], %r9;
	st.u32 	[%SP+28], %r8;
	st.u32 	[%SP+24], %r7;
	st.u32 	[%SP+16], %r6;
	ld.param.u32 	%r10, [SYCL_class_euclidean_clustering_init_radius_search_param_6];
	ld.param.u32 	%r11, [SYCL_class_euclidean_clustering_init_radius_search_param_6+8];
	ld.param.u32 	%r12, [SYCL_class_euclidean_clustering_init_radius_search_param_6+12];
	ld.param.u32 	%r13, [SYCL_class_euclidean_clustering_init_radius_search_param_6+4];
	add.u64 	%rd14, %SP, 32;
	or.b64  	%rd15, %rd14, 4;
	st.u32 	[%rd15], %r13;
	st.u32 	[%SP+44], %r12;
	st.u32 	[%SP+40], %r11;
	st.u32 	[%SP+32], %r10;
	ld.param.u32 	%r14, [SYCL_class_euclidean_clustering_init_radius_search_param_4];
	ld.param.u32 	%r15, [SYCL_class_euclidean_clustering_init_radius_search_param_4+8];
	ld.param.u32 	%r16, [SYCL_class_euclidean_clustering_init_radius_search_param_4+12];
	ld.param.u32 	%r17, [SYCL_class_euclidean_clustering_init_radius_search_param_4+4];
	add.u64 	%rd16, %SP, 48;
	or.b64  	%rd17, %rd16, 4;
	st.u32 	[%rd17], %r17;
	st.u32 	[%SP+60], %r16;
	st.u32 	[%SP+56], %r15;
	st.u32 	[%SP+48], %r14;
	ld.param.u32 	%r18, [SYCL_class_euclidean_clustering_init_radius_search_param_3];
	ld.param.u32 	%r19, [SYCL_class_euclidean_clustering_init_radius_search_param_3+8];
	ld.param.u32 	%r20, [SYCL_class_euclidean_clustering_init_radius_search_param_3+12];
	ld.param.u32 	%r21, [SYCL_class_euclidean_clustering_init_radius_search_param_3+4];
	add.u64 	%rd18, %SP, 64;
	or.b64  	%rd19, %rd18, 4;
	st.u32 	[%rd19], %r21;
	st.u32 	[%SP+76], %r20;
	st.u32 	[%SP+72], %r19;
	st.u32 	[%SP+64], %r18;
	ld.param.u32 	%r22, [SYCL_class_euclidean_clustering_init_radius_search_param_2];
	ld.param.u32 	%r23, [SYCL_class_euclidean_clustering_init_radius_search_param_2+8];
	ld.param.u32 	%r24, [SYCL_class_euclidean_clustering_init_radius_search_param_2+12];
	ld.param.u32 	%r25, [SYCL_class_euclidean_clustering_init_radius_search_param_2+4];
	add.u64 	%rd20, %SP, 80;
	or.b64  	%rd21, %rd20, 4;
	st.u32 	[%rd21], %r25;
	st.u32 	[%SP+92], %r24;
	st.u32 	[%SP+88], %r23;
	st.u32 	[%SP+80], %r22;
	st.u32 	[%SP+272], %r1;
	st.u64 	[%SP+280], %rd2;
	st.u64 	[%SP+288], %rd6;
	st.f32 	[%SP+296], %f1;
	ld.u32 	%r26, [%SP+272];
	st.u32 	[%SP+304], %r26;
	ld.u64 	%rd22, [%SP+280];
	st.u64 	[%SP+312], %rd22;
	add.u64 	%rd23, %SP, 304;
	add.s64 	%rd24, %rd23, 16;
	mov.u64 	%rd25, 16;
	{ // callseq 0, 0
	.reg .b32 temp_param_reg;
	.param .b64 param0;
	st.param.b64 	[param0+0], %rd24;
	.param .b64 param1;
	st.param.b64 	[param1+0], %rd20;
	.param .b64 param2;
	st.param.b64 	[param2+0], %rd25;
	call.uni 
	_ZN2cl4sycl6memcpyIccyEE__ns1vPcPKcy, 
	(
	param0, 
	param1, 
	param2
	);
	} // callseq 0
	add.s64 	%rd26, %rd23, 32;
	{ // callseq 1, 0
	.reg .b32 temp_param_reg;
	.param .b64 param0;
	st.param.b64 	[param0+0], %rd26;
	.param .b64 param1;
	st.param.b64 	[param1+0], %rd18;
	.param .b64 param2;
	st.param.b64 	[param2+0], %rd25;
	call.uni 
	_ZN2cl4sycl6memcpyIccyEE__ns1vPcPKcy, 
	(
	param0, 
	param1, 
	param2
	);
	} // callseq 1
	add.s64 	%rd27, %rd23, 48;
	{ // callseq 2, 0
	.reg .b32 temp_param_reg;
	.param .b64 param0;
	st.param.b64 	[param0+0], %rd27;
	.param .b64 param1;
	st.param.b64 	[param1+0], %rd16;
	.param .b64 param2;
	st.param.b64 	[param2+0], %rd25;
	call.uni 
	_ZN2cl4sycl6memcpyIccyEE__ns1vPcPKcy, 
	(
	param0, 
	param1, 
	param2
	);
	} // callseq 2
	ld.u64 	%rd28, [%SP+288];
	st.u64 	[%SP+368], %rd28;
	add.s64 	%rd29, %rd23, 72;
	{ // callseq 3, 0
	.reg .b32 temp_param_reg;
	.param .b64 param0;
	st.param.b64 	[param0+0], %rd29;
	.param .b64 param1;
	st.param.b64 	[param1+0], %rd14;
	.param .b64 param2;
	st.param.b64 	[param2+0], %rd25;
	call.uni 
	_ZN2cl4sycl6memcpyIccyEE__ns1vPcPKcy, 
	(
	param0, 
	param1, 
	param2
	);
	} // callseq 3
	add.s64 	%rd30, %rd23, 88;
	{ // callseq 4, 0
	.reg .b32 temp_param_reg;
	.param .b64 param0;
	st.param.b64 	[param0+0], %rd30;
	.param .b64 param1;
	st.param.b64 	[param1+0], %rd12;
	.param .b64 param2;
	st.param.b64 	[param2+0], %rd25;
	call.uni 
	_ZN2cl4sycl6memcpyIccyEE__ns1vPcPKcy, 
	(
	param0, 
	param1, 
	param2
	);
	} // callseq 4
	add.s64 	%rd31, %rd23, 104;
	{ // callseq 5, 0
	.reg .b32 temp_param_reg;
	.param .b64 param0;
	st.param.b64 	[param0+0], %rd31;
	.param .b64 param1;
	st.param.b64 	[param1+0], %rd10;
	.param .b64 param2;
	st.param.b64 	[param2+0], %rd25;
	call.uni 
	_ZN2cl4sycl6memcpyIccyEE__ns1vPcPKcy, 
	(
	param0, 
	param1, 
	param2
	);
	} // callseq 5
	ld.f32 	%f2, [%SP+296];
	st.f32 	[%SP+424], %f2;
	mov.u32 	%r27, 0;
	{ // callseq 6, 0
	.reg .b32 temp_param_reg;
	.param .b32 param0;
	st.param.b32 	[param0+0], %r27;
	.param .b64 retval0;
	call.uni (retval0), 
	_ZN2cl4sycl6detail13get_global_idE__ns1j, 
	(
	param0
	);
	ld.param.b64 	%rd32, [retval0+0];
	} // callseq 6
	mov.u32 	%r28, 1;
	{ // callseq 7, 0
	.reg .b32 temp_param_reg;
	.param .b32 param0;
	st.param.b32 	[param0+0], %r28;
	.param .b64 retval0;
	call.uni (retval0), 
	_ZN2cl4sycl6detail13get_global_idE__ns1j, 
	(
	param0
	);
	ld.param.b64 	%rd33, [retval0+0];
	} // callseq 7
	mov.u32 	%r29, 2;
	{ // callseq 8, 0
	.reg .b32 temp_param_reg;
	.param .b32 param0;
	st.param.b32 	[param0+0], %r29;
	.param .b64 retval0;
	call.uni (retval0), 
	_ZN2cl4sycl6detail13get_global_idE__ns1j, 
	(
	param0
	);
	ld.param.b64 	%rd34, [retval0+0];
	} // callseq 8
	add.u64 	%rd35, %SP, 432;
	{ // callseq 9, 0
	.reg .b32 temp_param_reg;
	.param .b64 param0;
	st.param.b64 	[param0+0], %rd35;
	.param .b64 param1;
	st.param.b64 	[param1+0], %rd32;
	.param .b64 param2;
	st.param.b64 	[param2+0], %rd33;
	.param .b64 param3;
	st.param.b64 	[param3+0], %rd34;
	call.uni 
	_ZN2cl4sycl6detail11index_arrayC2E__ns1mmm, 
	(
	param0, 
	param1, 
	param2, 
	param3
	);
	} // callseq 9
	{ // callseq 10, 0
	.reg .b32 temp_param_reg;
	.param .b32 param0;
	st.param.b32 	[param0+0], %r27;
	.param .b64 retval0;
	call.uni (retval0), 
	_ZN2cl4sycl6detail15get_global_sizeE__ns1j, 
	(
	param0
	);
	ld.param.b64 	%rd36, [retval0+0];
	} // callseq 10
	{ // callseq 11, 0
	.reg .b32 temp_param_reg;
	.param .b32 param0;
	st.param.b32 	[param0+0], %r28;
	.param .b64 retval0;
	call.uni (retval0), 
	_ZN2cl4sycl6detail15get_global_sizeE__ns1j, 
	(
	param0
	);
	ld.param.b64 	%rd37, [retval0+0];
	} // callseq 11
	{ // callseq 12, 0
	.reg .b32 temp_param_reg;
	.param .b32 param0;
	st.param.b32 	[param0+0], %r29;
	.param .b64 retval0;
	call.uni (retval0), 
	_ZN2cl4sycl6detail15get_global_sizeE__ns1j, 
	(
	param0
	);
	ld.param.b64 	%rd38, [retval0+0];
	} // callseq 12
	add.u64 	%rd39, %SP, 456;
	{ // callseq 13, 0
	.reg .b32 temp_param_reg;
	.param .b64 param0;
	st.param.b64 	[param0+0], %rd39;
	.param .b64 param1;
	st.param.b64 	[param1+0], %rd36;
	.param .b64 param2;
	st.param.b64 	[param2+0], %rd37;
	.param .b64 param3;
	st.param.b64 	[param3+0], %rd38;
	call.uni 
	_ZN2cl4sycl6detail11index_arrayC2E__ns1mmm, 
	(
	param0, 
	param1, 
	param2, 
	param3
	);
	} // callseq 13
	add.u64 	%rd40, %SP, 560;
	mov.u64 	%rd41, 24;
	{ // callseq 14, 0
	.reg .b32 temp_param_reg;
	.param .b64 param0;
	st.param.b64 	[param0+0], %rd40;
	.param .b64 param1;
	st.param.b64 	[param1+0], %rd35;
	.param .b64 param2;
	st.param.b64 	[param2+0], %rd41;
	call.uni 
	_ZN2cl4sycl6memcpyIccyEE__ns1vPcPKcy, 
	(
	param0, 
	param1, 
	param2
	);
	} // callseq 14
	add.u64 	%rd42, %SP, 584;
	{ // callseq 15, 0
	.reg .b32 temp_param_reg;
	.param .b64 param0;
	st.param.b64 	[param0+0], %rd42;
	.param .b64 param1;
	st.param.b64 	[param1+0], %rd39;
	.param .b64 param2;
	st.param.b64 	[param2+0], %rd41;
	call.uni 
	_ZN2cl4sycl6memcpyIccyEE__ns1vPcPKcy, 
	(
	param0, 
	param1, 
	param2
	);
	} // callseq 15
	ld.u64 	%rd43, [%SP+560];
	ld.u64 	%rd44, [%SP+568];
	ld.u64 	%rd45, [%SP+576];
	ld.u64 	%rd46, [%SP+584];
	ld.u64 	%rd47, [%SP+592];
	ld.u64 	%rd48, [%SP+600];
	add.u64 	%rd49, %SP, 480;
	{ // callseq 16, 0
	.reg .b32 temp_param_reg;
	.param .b64 param0;
	st.param.b64 	[param0+0], %rd49;
	.param .align 8 .b8 param1[24];
	st.param.b64 	[param1+0], %rd43;
	st.param.b64 	[param1+8], %rd44;
	st.param.b64 	[param1+16], %rd45;
	.param .align 8 .b8 param2[24];
	st.param.b64 	[param2+0], %rd46;
	st.param.b64 	[param2+8], %rd47;
	st.param.b64 	[param2+16], %rd48;
	call.uni 
	_ZN2cl4sycl6detail9item_baseC2E__ns1NS1_11index_arrayES3_, 
	(
	param0, 
	param1, 
	param2
	);
	} // callseq 16
	add.u64 	%rd50, %SP, 608;
	{ // callseq 17, 0
	.reg .b32 temp_param_reg;
	.param .b64 param0;
	st.param.b64 	[param0+0], %rd50;
	.param .b64 param1;
	st.param.b64 	[param1+0], %rd49;
	call.uni 
	_ZN2cl4sycl2idILi1EEC2E__ns1RKNS0_6detail9item_baseE, 
	(
	param0, 
	param1
	);
	} // callseq 17
	add.u64 	%rd51, %SP, 248;
	{ // callseq 18, 0
	.reg .b32 temp_param_reg;
	.param .b64 param0;
	st.param.b64 	[param0+0], %rd51;
	.param .b64 param1;
	st.param.b64 	[param1+0], %rd50;
	.param .b64 param2;
	st.param.b64 	[param2+0], %rd41;
	call.uni 
	_ZN2cl4sycl6memcpyIccyEE__ns1vPcPKcy, 
	(
	param0, 
	param1, 
	param2
	);
	} // callseq 18
	st.u64 	[%SP+96], %rd23;
	ld.u64 	%rd1, [%SP+96];
	{ // callseq 19, 0
	.reg .b32 temp_param_reg;
	.param .b64 param0;
	st.param.b64 	[param0+0], %rd51;
	.param .b32 param1;
	st.param.b32 	[param1+0], %r27;
	.param .b64 retval0;
	call.uni (retval0), 
	_ZNK2cl4sycl6detail16index_array_base3getE__ns1j, 
	(
	param0, 
	param1
	);
	ld.param.b64 	%rd52, [retval0+0];
	} // callseq 19
	st.u32 	[%SP+104], %rd52;
	st.u32 	[%SP+108], %r27;
	bra.uni 	LBB9_1;
LBB9_1:                                 // =>This Inner Loop Header: Depth=1
	ld.u32 	%r30, [%SP+108];
	ld.u32 	%r31, [%rd1];
	setp.ge.s32 	%p1, %r30, %r31;
	@%p1 bra 	LBB9_3;
	bra.uni 	LBB9_2;
LBB9_2:                                 //   in Loop: Header=BB9_1 Depth=1
	add.s64 	%rd53, %rd1, 8;
	ld.s32 	%rd54, [%SP+104];
	{ // callseq 20, 0
	.reg .b32 temp_param_reg;
	.param .b64 param0;
	st.param.b64 	[param0+0], %rd53;
	.param .b64 param1;
	st.param.b64 	[param1+0], %rd54;
	.param .align 4 .b8 retval0[12];
	call.uni (retval0), 
	_ZNK2cl4sycl6detail15accessor_commonI5PointLi1ELNS0_6access4modeE0ELNS4_6targetE1ELNS4_11placeholderE0EEixIS3_vEE__ns1S3_m, 
	(
	param0, 
	param1
	);
	ld.param.f32 	%f3, [retval0+0];
	ld.param.f32 	%f4, [retval0+4];
	ld.param.f32 	%f5, [retval0+8];
	} // callseq 20
	st.f32 	[%SP+120], %f3;
	add.u64 	%rd55, %SP, 120;
	or.b64  	%rd56, %rd55, 4;
	st.f32 	[%rd56], %f4;
	st.f32 	[%SP+128], %f5;
	ld.f32 	%f6, [%SP+120];
	ld.s32 	%rd57, [%SP+108];
	{ // callseq 21, 0
	.reg .b32 temp_param_reg;
	.param .b64 param0;
	st.param.b64 	[param0+0], %rd53;
	.param .b64 param1;
	st.param.b64 	[param1+0], %rd57;
	.param .align 4 .b8 retval0[12];
	call.uni (retval0), 
	_ZNK2cl4sycl6detail15accessor_commonI5PointLi1ELNS0_6access4modeE0ELNS4_6targetE1ELNS4_11placeholderE0EEixIS3_vEE__ns1S3_m, 
	(
	param0, 
	param1
	);
	ld.param.f32 	%f7, [retval0+0];
	ld.param.f32 	%f8, [retval0+4];
	ld.param.f32 	%f9, [retval0+8];
	} // callseq 21
	st.f32 	[%SP+136], %f7;
	add.u64 	%rd58, %SP, 136;
	or.b64  	%rd59, %rd58, 4;
	st.f32 	[%rd59], %f8;
	st.f32 	[%SP+144], %f9;
	ld.f32 	%f10, [%SP+136];
	sub.rn.f32 	%f11, %f6, %f10;
	st.f32 	[%SP+112], %f11;
	ld.s32 	%rd60, [%SP+104];
	{ // callseq 22, 0
	.reg .b32 temp_param_reg;
	.param .b64 param0;
	st.param.b64 	[param0+0], %rd53;
	.param .b64 param1;
	st.param.b64 	[param1+0], %rd60;
	.param .align 4 .b8 retval0[12];
	call.uni (retval0), 
	_ZNK2cl4sycl6detail15accessor_commonI5PointLi1ELNS0_6access4modeE0ELNS4_6targetE1ELNS4_11placeholderE0EEixIS3_vEE__ns1S3_m, 
	(
	param0, 
	param1
	);
	ld.param.f32 	%f12, [retval0+0];
	ld.param.f32 	%f13, [retval0+4];
	ld.param.f32 	%f14, [retval0+8];
	} // callseq 22
	st.f32 	[%SP+152], %f12;
	add.u64 	%rd61, %SP, 152;
	or.b64  	%rd62, %rd61, 4;
	st.f32 	[%rd62], %f13;
	st.f32 	[%SP+160], %f14;
	ld.f32 	%f15, [%rd62];
	ld.s32 	%rd63, [%SP+108];
	{ // callseq 23, 0
	.reg .b32 temp_param_reg;
	.param .b64 param0;
	st.param.b64 	[param0+0], %rd53;
	.param .b64 param1;
	st.param.b64 	[param1+0], %rd63;
	.param .align 4 .b8 retval0[12];
	call.uni (retval0), 
	_ZNK2cl4sycl6detail15accessor_commonI5PointLi1ELNS0_6access4modeE0ELNS4_6targetE1ELNS4_11placeholderE0EEixIS3_vEE__ns1S3_m, 
	(
	param0, 
	param1
	);
	ld.param.f32 	%f16, [retval0+0];
	ld.param.f32 	%f17, [retval0+4];
	ld.param.f32 	%f18, [retval0+8];
	} // callseq 23
	st.f32 	[%SP+168], %f16;
	add.u64 	%rd64, %SP, 168;
	or.b64  	%rd65, %rd64, 4;
	st.f32 	[%rd65], %f17;
	st.f32 	[%SP+176], %f18;
	ld.f32 	%f19, [%rd65];
	sub.rn.f32 	%f20, %f15, %f19;
	st.f32 	[%SP+148], %f20;
	ld.s32 	%rd66, [%SP+104];
	{ // callseq 24, 0
	.reg .b32 temp_param_reg;
	.param .b64 param0;
	st.param.b64 	[param0+0], %rd53;
	.param .b64 param1;
	st.param.b64 	[param1+0], %rd66;
	.param .align 4 .b8 retval0[12];
	call.uni (retval0), 
	_ZNK2cl4sycl6detail15accessor_commonI5PointLi1ELNS0_6access4modeE0ELNS4_6targetE1ELNS4_11placeholderE0EEixIS3_vEE__ns1S3_m, 
	(
	param0, 
	param1
	);
	ld.param.f32 	%f21, [retval0+0];
	ld.param.f32 	%f22, [retval0+4];
	ld.param.f32 	%f23, [retval0+8];
	} // callseq 24
	st.f32 	[%SP+184], %f21;
	add.u64 	%rd67, %SP, 184;
	or.b64  	%rd68, %rd67, 4;
	st.f32 	[%rd68], %f22;
	st.f32 	[%SP+192], %f23;
	ld.f32 	%f24, [%SP+192];
	ld.s32 	%rd69, [%SP+108];
	{ // callseq 25, 0
	.reg .b32 temp_param_reg;
	.param .b64 param0;
	st.param.b64 	[param0+0], %rd53;
	.param .b64 param1;
	st.param.b64 	[param1+0], %rd69;
	.param .align 4 .b8 retval0[12];
	call.uni (retval0), 
	_ZNK2cl4sycl6detail15accessor_commonI5PointLi1ELNS0_6access4modeE0ELNS4_6targetE1ELNS4_11placeholderE0EEixIS3_vEE__ns1S3_m, 
	(
	param0, 
	param1
	);
	ld.param.f32 	%f25, [retval0+0];
	ld.param.f32 	%f26, [retval0+4];
	ld.param.f32 	%f27, [retval0+8];
	} // callseq 25
	st.f32 	[%SP+200], %f25;
	add.u64 	%rd70, %SP, 200;
	or.b64  	%rd71, %rd70, 4;
	st.f32 	[%rd71], %f26;
	st.f32 	[%SP+208], %f27;
	ld.f32 	%f28, [%SP+208];
	sub.rn.f32 	%f29, %f24, %f28;
	st.f32 	[%SP+180], %f29;
	ld.f32 	%f30, [%SP+112];
	mul.rn.f32 	%f31, %f30, %f30;
	ld.f32 	%f32, [%SP+148];
	mul.rn.f32 	%f33, %f32, %f32;
	add.rn.f32 	%f34, %f31, %f33;
	ld.f32 	%f35, [%SP+180];
	mul.rn.f32 	%f36, %f35, %f35;
	add.rn.f32 	%f37, %f34, %f36;
	st.f32 	[%SP+212], %f37;
	ld.f32 	%f38, [%SP+212];
	ld.f32 	%f39, [%rd1+120];
	setp.le.f32 	%p2, %f38, %f39;
	add.s64 	%rd72, %rd1, 64;
	ld.s32 	%rd73, [%SP+104];
	{ // callseq 26, 0
	.reg .b32 temp_param_reg;
	.param .b64 param0;
	st.param.b64 	[param0+0], %rd72;
	.param .b64 param1;
	st.param.b64 	[param1+0], %rd73;
	.param .align 8 .b8 retval0[32];
	call.uni (retval0), 
	_ZNK2cl4sycl6detail15accessor_commonIbLi2ELNS0_6access4modeE1ELNS3_6targetE1ELNS3_11placeholderE0EEixIbvEE__ns1NS0_12subscript_opILi1EbLi2ELS4_1ELS5_1ELS6_0EEEm, 
	(
	param0, 
	param1
	);
	ld.param.b64 	%rd74, [retval0+0];
	ld.param.b64 	%rd75, [retval0+8];
	ld.param.b64 	%rd76, [retval0+16];
	ld.param.b64 	%rd77, [retval0+24];
	} // callseq 26
	st.u64 	[%SP+216], %rd74;
	st.u64 	[%SP+240], %rd77;
	st.u64 	[%SP+232], %rd76;
	st.u64 	[%SP+224], %rd75;
	ld.s32 	%rd78, [%SP+108];
	add.u64 	%rd79, %SP, 216;
	{ // callseq 27, 0
	.reg .b32 temp_param_reg;
	.param .b64 param0;
	st.param.b64 	[param0+0], %rd79;
	.param .b64 param1;
	st.param.b64 	[param1+0], %rd78;
	.param .b64 retval0;
	call.uni (retval0), 
	_ZN2cl4sycl12subscript_opILi1EbLi2ELNS0_6access4modeE1ELNS2_6targetE1ELNS2_11placeholderE0EEixIbvEE__ns1RU3AS1bm, 
	(
	param0, 
	param1
	);
	ld.param.b64 	%rd80, [retval0+0];
	} // callseq 27
	selp.u16 	%rs1, 1, 0, %p2;
	st.global.u8 	[%rd80], %rs1;
	ld.u32 	%r32, [%SP+108];
	add.s32 	%r33, %r32, 1;
	st.u32 	[%SP+108], %r33;
	bra.uni 	LBB9_1;
LBB9_3:
	ret;
}
                                        // -- End function
	// .globl	_ZN2cl4sycl6detail11index_arrayC2E__ns1mmm // -- Begin function _ZN2cl4sycl6detail11index_arrayC2E__ns1mmm
.func _ZN2cl4sycl6detail11index_arrayC2E__ns1mmm(
	.param .b64 _ZN2cl4sycl6detail11index_arrayC2E__ns1mmm_param_0,
	.param .b64 _ZN2cl4sycl6detail11index_arrayC2E__ns1mmm_param_1,
	.param .b64 _ZN2cl4sycl6detail11index_arrayC2E__ns1mmm_param_2,
	.param .b64 _ZN2cl4sycl6detail11index_arrayC2E__ns1mmm_param_3
)                                       // @_ZN2cl4sycl6detail11index_arrayC2E__ns1mmm
{
	.local .align 8 .b8 	__local_depot10[32];
	.reg .b64 	%SP;
	.reg .b64 	%SPL;
	.reg .b64 	%rd<9>;

// %bb.0:
	mov.u64 	%SPL, __local_depot10;
	cvta.local.u64 	%SP, %SPL;
	ld.param.u64 	%rd4, [_ZN2cl4sycl6detail11index_arrayC2E__ns1mmm_param_3];
	ld.param.u64 	%rd3, [_ZN2cl4sycl6detail11index_arrayC2E__ns1mmm_param_2];
	ld.param.u64 	%rd2, [_ZN2cl4sycl6detail11index_arrayC2E__ns1mmm_param_1];
	ld.param.u64 	%rd1, [_ZN2cl4sycl6detail11index_arrayC2E__ns1mmm_param_0];
	st.u64 	[%SP+0], %rd1;
	st.u64 	[%SP+8], %rd2;
	st.u64 	[%SP+16], %rd3;
	st.u64 	[%SP+24], %rd4;
	ld.u64 	%rd5, [%SP+0];
	ld.u64 	%rd6, [%SP+8];
	st.u64 	[%rd5], %rd6;
	ld.u64 	%rd7, [%SP+16];
	st.u64 	[%rd5+8], %rd7;
	ld.u64 	%rd8, [%SP+24];
	st.u64 	[%rd5+16], %rd8;
	ret;
}
                                        // -- End function
	// .globl	_ZN2cl4sycl6detail9item_baseC2E__ns1NS1_11index_arrayES3_ // -- Begin function _ZN2cl4sycl6detail9item_baseC2E__ns1NS1_11index_arrayES3_
.func _ZN2cl4sycl6detail9item_baseC2E__ns1NS1_11index_arrayES3_(
	.param .b64 _ZN2cl4sycl6detail9item_baseC2E__ns1NS1_11index_arrayES3__param_0,
	.param .align 8 .b8 _ZN2cl4sycl6detail9item_baseC2E__ns1NS1_11index_arrayES3__param_1[24],
	.param .align 8 .b8 _ZN2cl4sycl6detail9item_baseC2E__ns1NS1_11index_arrayES3__param_2[24]
)                                       // @_ZN2cl4sycl6detail9item_baseC2E__ns1NS1_11index_arrayES3_
{
	.local .align 8 .b8 	__local_depot11[128];
	.reg .b64 	%SP;
	.reg .b64 	%SPL;
	.reg .b64 	%rd<27>;

// %bb.0:
	mov.u64 	%SPL, __local_depot11;
	cvta.local.u64 	%SP, %SPL;
	mov.b64 	%rd3, _ZN2cl4sycl6detail9item_baseC2E__ns1NS1_11index_arrayES3__param_2;
	mov.b64 	%rd2, _ZN2cl4sycl6detail9item_baseC2E__ns1NS1_11index_arrayES3__param_1;
	ld.param.u64 	%rd1, [_ZN2cl4sycl6detail9item_baseC2E__ns1NS1_11index_arrayES3__param_0];
	ld.param.u64 	%rd4, [_ZN2cl4sycl6detail9item_baseC2E__ns1NS1_11index_arrayES3__param_2];
	ld.param.u64 	%rd5, [_ZN2cl4sycl6detail9item_baseC2E__ns1NS1_11index_arrayES3__param_2+8];
	ld.param.u64 	%rd6, [_ZN2cl4sycl6detail9item_baseC2E__ns1NS1_11index_arrayES3__param_2+16];
	st.u64 	[%SP+16], %rd6;
	st.u64 	[%SP+8], %rd5;
	st.u64 	[%SP+0], %rd4;
	ld.param.u64 	%rd7, [_ZN2cl4sycl6detail9item_baseC2E__ns1NS1_11index_arrayES3__param_1];
	ld.param.u64 	%rd8, [_ZN2cl4sycl6detail9item_baseC2E__ns1NS1_11index_arrayES3__param_1+8];
	ld.param.u64 	%rd9, [_ZN2cl4sycl6detail9item_baseC2E__ns1NS1_11index_arrayES3__param_1+16];
	st.u64 	[%SP+40], %rd9;
	st.u64 	[%SP+32], %rd8;
	st.u64 	[%SP+24], %rd7;
	st.u64 	[%SP+48], %rd1;
	ld.u64 	%rd10, [%SP+48];
	add.u64 	%rd11, %SP, 56;
	add.u64 	%rd12, %SP, 24;
	mov.u64 	%rd13, 24;
	{ // callseq 28, 0
	.reg .b32 temp_param_reg;
	.param .b64 param0;
	st.param.b64 	[param0+0], %rd11;
	.param .b64 param1;
	st.param.b64 	[param1+0], %rd12;
	.param .b64 param2;
	st.param.b64 	[param2+0], %rd13;
	call.uni 
	_ZN2cl4sycl6memcpyIccyEE__ns1vPcPKcy, 
	(
	param0, 
	param1, 
	param2
	);
	} // callseq 28
	add.u64 	%rd14, %SP, 80;
	add.u64 	%rd15, %SP, 0;
	{ // callseq 29, 0
	.reg .b32 temp_param_reg;
	.param .b64 param0;
	st.param.b64 	[param0+0], %rd14;
	.param .b64 param1;
	st.param.b64 	[param1+0], %rd15;
	.param .b64 param2;
	st.param.b64 	[param2+0], %rd13;
	call.uni 
	_ZN2cl4sycl6memcpyIccyEE__ns1vPcPKcy, 
	(
	param0, 
	param1, 
	param2
	);
	} // callseq 29
	add.u64 	%rd16, %SP, 104;
	mov.u64 	%rd17, 0;
	{ // callseq 30, 0
	.reg .b32 temp_param_reg;
	.param .b64 param0;
	st.param.b64 	[param0+0], %rd16;
	.param .b64 param1;
	st.param.b64 	[param1+0], %rd17;
	.param .b64 param2;
	st.param.b64 	[param2+0], %rd17;
	.param .b64 param3;
	st.param.b64 	[param3+0], %rd17;
	call.uni 
	_ZN2cl4sycl6detail11index_arrayC2E__ns1mmm, 
	(
	param0, 
	param1, 
	param2, 
	param3
	);
	} // callseq 30
	ld.u64 	%rd18, [%SP+56];
	ld.u64 	%rd19, [%SP+64];
	ld.u64 	%rd20, [%SP+72];
	ld.u64 	%rd21, [%SP+80];
	ld.u64 	%rd22, [%SP+88];
	ld.u64 	%rd23, [%SP+96];
	ld.u64 	%rd24, [%SP+104];
	ld.u64 	%rd25, [%SP+112];
	ld.u64 	%rd26, [%SP+120];
	{ // callseq 31, 0
	.reg .b32 temp_param_reg;
	.param .b64 param0;
	st.param.b64 	[param0+0], %rd10;
	.param .align 8 .b8 param1[24];
	st.param.b64 	[param1+0], %rd18;
	st.param.b64 	[param1+8], %rd19;
	st.param.b64 	[param1+16], %rd20;
	.param .align 8 .b8 param2[24];
	st.param.b64 	[param2+0], %rd21;
	st.param.b64 	[param2+8], %rd22;
	st.param.b64 	[param2+16], %rd23;
	.param .align 8 .b8 param3[24];
	st.param.b64 	[param3+0], %rd24;
	st.param.b64 	[param3+8], %rd25;
	st.param.b64 	[param3+16], %rd26;
	call.uni 
	_ZN2cl4sycl6detail9item_baseC2E__ns1NS1_11index_arrayES3_S3_, 
	(
	param0, 
	param1, 
	param2, 
	param3
	);
	} // callseq 31
	ret;
}
                                        // -- End function
	// .globl	_ZN2cl4sycl2idILi1EEC2E__ns1RKNS0_6detail9item_baseE // -- Begin function _ZN2cl4sycl2idILi1EEC2E__ns1RKNS0_6detail9item_baseE
.func _ZN2cl4sycl2idILi1EEC2E__ns1RKNS0_6detail9item_baseE(
	.param .b64 _ZN2cl4sycl2idILi1EEC2E__ns1RKNS0_6detail9item_baseE_param_0,
	.param .b64 _ZN2cl4sycl2idILi1EEC2E__ns1RKNS0_6detail9item_baseE_param_1
)                                       // @_ZN2cl4sycl2idILi1EEC2E__ns1RKNS0_6detail9item_baseE
{
	.local .align 8 .b8 	__local_depot12[16];
	.reg .b64 	%SP;
	.reg .b64 	%SPL;
	.reg .b32 	%r<4>;
	.reg .b64 	%rd<10>;

// %bb.0:
	mov.u64 	%SPL, __local_depot12;
	cvta.local.u64 	%SP, %SPL;
	ld.param.u64 	%rd2, [_ZN2cl4sycl2idILi1EEC2E__ns1RKNS0_6detail9item_baseE_param_1];
	ld.param.u64 	%rd1, [_ZN2cl4sycl2idILi1EEC2E__ns1RKNS0_6detail9item_baseE_param_0];
	st.u64 	[%SP+0], %rd1;
	st.u64 	[%SP+8], %rd2;
	ld.u64 	%rd3, [%SP+0];
	ld.u64 	%rd4, [%SP+8];
	mov.u32 	%r1, 0;
	{ // callseq 32, 0
	.reg .b32 temp_param_reg;
	.param .b64 param0;
	st.param.b64 	[param0+0], %rd4;
	.param .b32 param1;
	st.param.b32 	[param1+0], %r1;
	.param .b64 retval0;
	call.uni (retval0), 
	_ZNK2cl4sycl6detail9item_base6get_idE__ns1i, 
	(
	param0, 
	param1
	);
	ld.param.b64 	%rd5, [retval0+0];
	} // callseq 32
	ld.u64 	%rd6, [%SP+8];
	mov.u32 	%r2, 1;
	{ // callseq 33, 0
	.reg .b32 temp_param_reg;
	.param .b64 param0;
	st.param.b64 	[param0+0], %rd6;
	.param .b32 param1;
	st.param.b32 	[param1+0], %r2;
	.param .b64 retval0;
	call.uni (retval0), 
	_ZNK2cl4sycl6detail9item_base6get_idE__ns1i, 
	(
	param0, 
	param1
	);
	ld.param.b64 	%rd7, [retval0+0];
	} // callseq 33
	ld.u64 	%rd8, [%SP+8];
	mov.u32 	%r3, 2;
	{ // callseq 34, 0
	.reg .b32 temp_param_reg;
	.param .b64 param0;
	st.param.b64 	[param0+0], %rd8;
	.param .b32 param1;
	st.param.b32 	[param1+0], %r3;
	.param .b64 retval0;
	call.uni (retval0), 
	_ZNK2cl4sycl6detail9item_base6get_idE__ns1i, 
	(
	param0, 
	param1
	);
	ld.param.b64 	%rd9, [retval0+0];
	} // callseq 34
	{ // callseq 35, 0
	.reg .b32 temp_param_reg;
	.param .b64 param0;
	st.param.b64 	[param0+0], %rd3;
	.param .b64 param1;
	st.param.b64 	[param1+0], %rd5;
	.param .b64 param2;
	st.param.b64 	[param2+0], %rd7;
	.param .b64 param3;
	st.param.b64 	[param3+0], %rd9;
	call.uni 
	_ZN2cl4sycl6detail21index_array_operatorsILi1ENS0_2idEEC2E__ns1mmm, 
	(
	param0, 
	param1, 
	param2, 
	param3
	);
	} // callseq 35
	ret;
}
                                        // -- End function
	// .globl	SYCL_class_euclidean_clustering_radius_search // -- Begin function SYCL_class_euclidean_clustering_radius_search
.entry SYCL_class_euclidean_clustering_radius_search(
	.param .u32 SYCL_class_euclidean_clustering_radius_search_param_0,
	.param .u32 SYCL_class_euclidean_clustering_radius_search_param_1,
	.param .u64 .ptr .global .align 1 SYCL_class_euclidean_clustering_radius_search_param_2,
	.param .align 4 .b8 SYCL_class_euclidean_clustering_radius_search_param_3[16],
	.param .align 4 .b8 SYCL_class_euclidean_clustering_radius_search_param_4[16],
	.param .align 4 .b8 SYCL_class_euclidean_clustering_radius_search_param_5[16],
	.param .u64 .ptr .global .align 4 SYCL_class_euclidean_clustering_radius_search_param_6,
	.param .align 4 .b8 SYCL_class_euclidean_clustering_radius_search_param_7[16],
	.param .align 4 .b8 SYCL_class_euclidean_clustering_radius_search_param_8[16],
	.param .align 4 .b8 SYCL_class_euclidean_clustering_radius_search_param_9[16],
	.param .u64 .ptr .global .align 1 SYCL_class_euclidean_clustering_radius_search_param_10,
	.param .align 4 .b8 SYCL_class_euclidean_clustering_radius_search_param_11[16],
	.param .align 4 .b8 SYCL_class_euclidean_clustering_radius_search_param_12[16],
	.param .align 4 .b8 SYCL_class_euclidean_clustering_radius_search_param_13[16]
)                                       // @SYCL_class_euclidean_clustering_radius_search
{
	.local .align 8 .b8 	__local_depot13[632];
	.reg .b64 	%SP;
	.reg .b64 	%SPL;
	.reg .pred 	%p<4>;
	.reg .b16 	%rs<6>;
	.reg .b32 	%r<52>;
	.reg .b64 	%rd<81>;

// %bb.0:
	mov.u64 	%SPL, __local_depot13;
	cvta.local.u64 	%SP, %SPL;
	mov.b64 	%rd13, SYCL_class_euclidean_clustering_radius_search_param_13;
	mov.b64 	%rd12, SYCL_class_euclidean_clustering_radius_search_param_12;
	mov.b64 	%rd11, SYCL_class_euclidean_clustering_radius_search_param_11;
	ld.param.u64 	%rd10, [SYCL_class_euclidean_clustering_radius_search_param_10];
	mov.b64 	%rd9, SYCL_class_euclidean_clustering_radius_search_param_9;
	mov.b64 	%rd8, SYCL_class_euclidean_clustering_radius_search_param_8;
	mov.b64 	%rd7, SYCL_class_euclidean_clustering_radius_search_param_7;
	ld.param.u64 	%rd6, [SYCL_class_euclidean_clustering_radius_search_param_6];
	mov.b64 	%rd5, SYCL_class_euclidean_clustering_radius_search_param_5;
	mov.b64 	%rd4, SYCL_class_euclidean_clustering_radius_search_param_4;
	mov.b64 	%rd3, SYCL_class_euclidean_clustering_radius_search_param_3;
	ld.param.u64 	%rd2, [SYCL_class_euclidean_clustering_radius_search_param_2];
	ld.param.u32 	%r2, [SYCL_class_euclidean_clustering_radius_search_param_1];
	ld.param.u32 	%r1, [SYCL_class_euclidean_clustering_radius_search_param_0];
	ld.param.u32 	%r3, [SYCL_class_euclidean_clustering_radius_search_param_13];
	ld.param.u32 	%r4, [SYCL_class_euclidean_clustering_radius_search_param_13+8];
	ld.param.u32 	%r5, [SYCL_class_euclidean_clustering_radius_search_param_13+12];
	ld.param.u32 	%r6, [SYCL_class_euclidean_clustering_radius_search_param_13+4];
	add.u64 	%rd14, %SP, 0;
	or.b64  	%rd15, %rd14, 4;
	st.u32 	[%rd15], %r6;
	st.u32 	[%SP+12], %r5;
	st.u32 	[%SP+8], %r4;
	st.u32 	[%SP+0], %r3;
	ld.param.u32 	%r7, [SYCL_class_euclidean_clustering_radius_search_param_12];
	ld.param.u32 	%r8, [SYCL_class_euclidean_clustering_radius_search_param_12+8];
	ld.param.u32 	%r9, [SYCL_class_euclidean_clustering_radius_search_param_12+12];
	ld.param.u32 	%r10, [SYCL_class_euclidean_clustering_radius_search_param_12+4];
	add.u64 	%rd16, %SP, 16;
	or.b64  	%rd17, %rd16, 4;
	st.u32 	[%rd17], %r10;
	st.u32 	[%SP+28], %r9;
	st.u32 	[%SP+24], %r8;
	st.u32 	[%SP+16], %r7;
	ld.param.u32 	%r11, [SYCL_class_euclidean_clustering_radius_search_param_11];
	ld.param.u32 	%r12, [SYCL_class_euclidean_clustering_radius_search_param_11+8];
	ld.param.u32 	%r13, [SYCL_class_euclidean_clustering_radius_search_param_11+12];
	ld.param.u32 	%r14, [SYCL_class_euclidean_clustering_radius_search_param_11+4];
	add.u64 	%rd18, %SP, 32;
	or.b64  	%rd19, %rd18, 4;
	st.u32 	[%rd19], %r14;
	st.u32 	[%SP+44], %r13;
	st.u32 	[%SP+40], %r12;
	st.u32 	[%SP+32], %r11;
	ld.param.u32 	%r15, [SYCL_class_euclidean_clustering_radius_search_param_9];
	ld.param.u32 	%r16, [SYCL_class_euclidean_clustering_radius_search_param_9+8];
	ld.param.u32 	%r17, [SYCL_class_euclidean_clustering_radius_search_param_9+12];
	ld.param.u32 	%r18, [SYCL_class_euclidean_clustering_radius_search_param_9+4];
	add.u64 	%rd20, %SP, 48;
	or.b64  	%rd21, %rd20, 4;
	st.u32 	[%rd21], %r18;
	st.u32 	[%SP+60], %r17;
	st.u32 	[%SP+56], %r16;
	st.u32 	[%SP+48], %r15;
	ld.param.u32 	%r19, [SYCL_class_euclidean_clustering_radius_search_param_8];
	ld.param.u32 	%r20, [SYCL_class_euclidean_clustering_radius_search_param_8+8];
	ld.param.u32 	%r21, [SYCL_class_euclidean_clustering_radius_search_param_8+12];
	ld.param.u32 	%r22, [SYCL_class_euclidean_clustering_radius_search_param_8+4];
	add.u64 	%rd22, %SP, 64;
	or.b64  	%rd23, %rd22, 4;
	st.u32 	[%rd23], %r22;
	st.u32 	[%SP+76], %r21;
	st.u32 	[%SP+72], %r20;
	st.u32 	[%SP+64], %r19;
	ld.param.u32 	%r23, [SYCL_class_euclidean_clustering_radius_search_param_7];
	ld.param.u32 	%r24, [SYCL_class_euclidean_clustering_radius_search_param_7+8];
	ld.param.u32 	%r25, [SYCL_class_euclidean_clustering_radius_search_param_7+12];
	ld.param.u32 	%r26, [SYCL_class_euclidean_clustering_radius_search_param_7+4];
	add.u64 	%rd24, %SP, 80;
	or.b64  	%rd25, %rd24, 4;
	st.u32 	[%rd25], %r26;
	st.u32 	[%SP+92], %r25;
	st.u32 	[%SP+88], %r24;
	st.u32 	[%SP+80], %r23;
	ld.param.u32 	%r27, [SYCL_class_euclidean_clustering_radius_search_param_5];
	ld.param.u32 	%r28, [SYCL_class_euclidean_clustering_radius_search_param_5+8];
	ld.param.u32 	%r29, [SYCL_class_euclidean_clustering_radius_search_param_5+12];
	ld.param.u32 	%r30, [SYCL_class_euclidean_clustering_radius_search_param_5+4];
	add.u64 	%rd26, %SP, 96;
	or.b64  	%rd27, %rd26, 4;
	st.u32 	[%rd27], %r30;
	st.u32 	[%SP+108], %r29;
	st.u32 	[%SP+104], %r28;
	st.u32 	[%SP+96], %r27;
	ld.param.u32 	%r31, [SYCL_class_euclidean_clustering_radius_search_param_4];
	ld.param.u32 	%r32, [SYCL_class_euclidean_clustering_radius_search_param_4+8];
	ld.param.u32 	%r33, [SYCL_class_euclidean_clustering_radius_search_param_4+12];
	ld.param.u32 	%r34, [SYCL_class_euclidean_clustering_radius_search_param_4+4];
	add.u64 	%rd28, %SP, 112;
	or.b64  	%rd29, %rd28, 4;
	st.u32 	[%rd29], %r34;
	st.u32 	[%SP+124], %r33;
	st.u32 	[%SP+120], %r32;
	st.u32 	[%SP+112], %r31;
	ld.param.u32 	%r35, [SYCL_class_euclidean_clustering_radius_search_param_3];
	ld.param.u32 	%r36, [SYCL_class_euclidean_clustering_radius_search_param_3+8];
	ld.param.u32 	%r37, [SYCL_class_euclidean_clustering_radius_search_param_3+12];
	ld.param.u32 	%r38, [SYCL_class_euclidean_clustering_radius_search_param_3+4];
	add.u64 	%rd30, %SP, 128;
	or.b64  	%rd31, %rd30, 4;
	st.u32 	[%rd31], %r38;
	st.u32 	[%SP+140], %r37;
	st.u32 	[%SP+136], %r36;
	st.u32 	[%SP+128], %r35;
	st.u32 	[%SP+224], %r1;
	st.u32 	[%SP+228], %r2;
	st.u64 	[%SP+232], %rd2;
	st.u64 	[%SP+240], %rd6;
	st.u64 	[%SP+248], %rd10;
	ld.u32 	%r39, [%SP+224];
	st.u32 	[%SP+256], %r39;
	add.u64 	%rd32, %SP, 256;
	or.b64  	%rd33, %rd32, 4;
	ld.u32 	%r40, [%SP+228];
	st.u32 	[%rd33], %r40;
	ld.u64 	%rd34, [%SP+232];
	st.u64 	[%SP+264], %rd34;
	add.s64 	%rd35, %rd32, 16;
	mov.u64 	%rd36, 16;
	{ // callseq 36, 0
	.reg .b32 temp_param_reg;
	.param .b64 param0;
	st.param.b64 	[param0+0], %rd35;
	.param .b64 param1;
	st.param.b64 	[param1+0], %rd30;
	.param .b64 param2;
	st.param.b64 	[param2+0], %rd36;
	call.uni 
	_ZN2cl4sycl6memcpyIccyEE__ns1vPcPKcy, 
	(
	param0, 
	param1, 
	param2
	);
	} // callseq 36
	add.s64 	%rd37, %rd32, 32;
	{ // callseq 37, 0
	.reg .b32 temp_param_reg;
	.param .b64 param0;
	st.param.b64 	[param0+0], %rd37;
	.param .b64 param1;
	st.param.b64 	[param1+0], %rd28;
	.param .b64 param2;
	st.param.b64 	[param2+0], %rd36;
	call.uni 
	_ZN2cl4sycl6memcpyIccyEE__ns1vPcPKcy, 
	(
	param0, 
	param1, 
	param2
	);
	} // callseq 37
	add.s64 	%rd38, %rd32, 48;
	{ // callseq 38, 0
	.reg .b32 temp_param_reg;
	.param .b64 param0;
	st.param.b64 	[param0+0], %rd38;
	.param .b64 param1;
	st.param.b64 	[param1+0], %rd26;
	.param .b64 param2;
	st.param.b64 	[param2+0], %rd36;
	call.uni 
	_ZN2cl4sycl6memcpyIccyEE__ns1vPcPKcy, 
	(
	param0, 
	param1, 
	param2
	);
	} // callseq 38
	ld.u64 	%rd39, [%SP+240];
	st.u64 	[%SP+320], %rd39;
	add.s64 	%rd40, %rd32, 72;
	{ // callseq 39, 0
	.reg .b32 temp_param_reg;
	.param .b64 param0;
	st.param.b64 	[param0+0], %rd40;
	.param .b64 param1;
	st.param.b64 	[param1+0], %rd24;
	.param .b64 param2;
	st.param.b64 	[param2+0], %rd36;
	call.uni 
	_ZN2cl4sycl6memcpyIccyEE__ns1vPcPKcy, 
	(
	param0, 
	param1, 
	param2
	);
	} // callseq 39
	add.s64 	%rd41, %rd32, 88;
	{ // callseq 40, 0
	.reg .b32 temp_param_reg;
	.param .b64 param0;
	st.param.b64 	[param0+0], %rd41;
	.param .b64 param1;
	st.param.b64 	[param1+0], %rd22;
	.param .b64 param2;
	st.param.b64 	[param2+0], %rd36;
	call.uni 
	_ZN2cl4sycl6memcpyIccyEE__ns1vPcPKcy, 
	(
	param0, 
	param1, 
	param2
	);
	} // callseq 40
	add.s64 	%rd42, %rd32, 104;
	{ // callseq 41, 0
	.reg .b32 temp_param_reg;
	.param .b64 param0;
	st.param.b64 	[param0+0], %rd42;
	.param .b64 param1;
	st.param.b64 	[param1+0], %rd20;
	.param .b64 param2;
	st.param.b64 	[param2+0], %rd36;
	call.uni 
	_ZN2cl4sycl6memcpyIccyEE__ns1vPcPKcy, 
	(
	param0, 
	param1, 
	param2
	);
	} // callseq 41
	ld.u64 	%rd43, [%SP+248];
	st.u64 	[%SP+376], %rd43;
	add.s64 	%rd44, %rd32, 128;
	{ // callseq 42, 0
	.reg .b32 temp_param_reg;
	.param .b64 param0;
	st.param.b64 	[param0+0], %rd44;
	.param .b64 param1;
	st.param.b64 	[param1+0], %rd18;
	.param .b64 param2;
	st.param.b64 	[param2+0], %rd36;
	call.uni 
	_ZN2cl4sycl6memcpyIccyEE__ns1vPcPKcy, 
	(
	param0, 
	param1, 
	param2
	);
	} // callseq 42
	add.s64 	%rd45, %rd32, 144;
	{ // callseq 43, 0
	.reg .b32 temp_param_reg;
	.param .b64 param0;
	st.param.b64 	[param0+0], %rd45;
	.param .b64 param1;
	st.param.b64 	[param1+0], %rd16;
	.param .b64 param2;
	st.param.b64 	[param2+0], %rd36;
	call.uni 
	_ZN2cl4sycl6memcpyIccyEE__ns1vPcPKcy, 
	(
	param0, 
	param1, 
	param2
	);
	} // callseq 43
	add.s64 	%rd46, %rd32, 160;
	{ // callseq 44, 0
	.reg .b32 temp_param_reg;
	.param .b64 param0;
	st.param.b64 	[param0+0], %rd46;
	.param .b64 param1;
	st.param.b64 	[param1+0], %rd14;
	.param .b64 param2;
	st.param.b64 	[param2+0], %rd36;
	call.uni 
	_ZN2cl4sycl6memcpyIccyEE__ns1vPcPKcy, 
	(
	param0, 
	param1, 
	param2
	);
	} // callseq 44
	mov.u32 	%r41, 0;
	{ // callseq 45, 0
	.reg .b32 temp_param_reg;
	.param .b32 param0;
	st.param.b32 	[param0+0], %r41;
	.param .b64 retval0;
	call.uni (retval0), 
	_ZN2cl4sycl6detail13get_global_idE__ns1j, 
	(
	param0
	);
	ld.param.b64 	%rd47, [retval0+0];
	} // callseq 45
	mov.u32 	%r42, 1;
	{ // callseq 46, 0
	.reg .b32 temp_param_reg;
	.param .b32 param0;
	st.param.b32 	[param0+0], %r42;
	.param .b64 retval0;
	call.uni (retval0), 
	_ZN2cl4sycl6detail13get_global_idE__ns1j, 
	(
	param0
	);
	ld.param.b64 	%rd48, [retval0+0];
	} // callseq 46
	mov.u32 	%r43, 2;
	{ // callseq 47, 0
	.reg .b32 temp_param_reg;
	.param .b32 param0;
	st.param.b32 	[param0+0], %r43;
	.param .b64 retval0;
	call.uni (retval0), 
	_ZN2cl4sycl6detail13get_global_idE__ns1j, 
	(
	param0
	);
	ld.param.b64 	%rd49, [retval0+0];
	} // callseq 47
	add.u64 	%rd50, %SP, 432;
	{ // callseq 48, 0
	.reg .b32 temp_param_reg;
	.param .b64 param0;
	st.param.b64 	[param0+0], %rd50;
	.param .b64 param1;
	st.param.b64 	[param1+0], %rd47;
	.param .b64 param2;
	st.param.b64 	[param2+0], %rd48;
	.param .b64 param3;
	st.param.b64 	[param3+0], %rd49;
	call.uni 
	_ZN2cl4sycl6detail11index_arrayC2E__ns1mmm, 
	(
	param0, 
	param1, 
	param2, 
	param3
	);
	} // callseq 48
	{ // callseq 49, 0
	.reg .b32 temp_param_reg;
	.param .b32 param0;
	st.param.b32 	[param0+0], %r41;
	.param .b64 retval0;
	call.uni (retval0), 
	_ZN2cl4sycl6detail15get_global_sizeE__ns1j, 
	(
	param0
	);
	ld.param.b64 	%rd51, [retval0+0];
	} // callseq 49
	{ // callseq 50, 0
	.reg .b32 temp_param_reg;
	.param .b32 param0;
	st.param.b32 	[param0+0], %r42;
	.param .b64 retval0;
	call.uni (retval0), 
	_ZN2cl4sycl6detail15get_global_sizeE__ns1j, 
	(
	param0
	);
	ld.param.b64 	%rd52, [retval0+0];
	} // callseq 50
	{ // callseq 51, 0
	.reg .b32 temp_param_reg;
	.param .b32 param0;
	st.param.b32 	[param0+0], %r43;
	.param .b64 retval0;
	call.uni (retval0), 
	_ZN2cl4sycl6detail15get_global_sizeE__ns1j, 
	(
	param0
	);
	ld.param.b64 	%rd53, [retval0+0];
	} // callseq 51
	add.u64 	%rd54, %SP, 456;
	{ // callseq 52, 0
	.reg .b32 temp_param_reg;
	.param .b64 param0;
	st.param.b64 	[param0+0], %rd54;
	.param .b64 param1;
	st.param.b64 	[param1+0], %rd51;
	.param .b64 param2;
	st.param.b64 	[param2+0], %rd52;
	.param .b64 param3;
	st.param.b64 	[param3+0], %rd53;
	call.uni 
	_ZN2cl4sycl6detail11index_arrayC2E__ns1mmm, 
	(
	param0, 
	param1, 
	param2, 
	param3
	);
	} // callseq 52
	add.u64 	%rd55, %SP, 560;
	mov.u64 	%rd56, 24;
	{ // callseq 53, 0
	.reg .b32 temp_param_reg;
	.param .b64 param0;
	st.param.b64 	[param0+0], %rd55;
	.param .b64 param1;
	st.param.b64 	[param1+0], %rd50;
	.param .b64 param2;
	st.param.b64 	[param2+0], %rd56;
	call.uni 
	_ZN2cl4sycl6memcpyIccyEE__ns1vPcPKcy, 
	(
	param0, 
	param1, 
	param2
	);
	} // callseq 53
	add.u64 	%rd57, %SP, 584;
	{ // callseq 54, 0
	.reg .b32 temp_param_reg;
	.param .b64 param0;
	st.param.b64 	[param0+0], %rd57;
	.param .b64 param1;
	st.param.b64 	[param1+0], %rd54;
	.param .b64 param2;
	st.param.b64 	[param2+0], %rd56;
	call.uni 
	_ZN2cl4sycl6memcpyIccyEE__ns1vPcPKcy, 
	(
	param0, 
	param1, 
	param2
	);
	} // callseq 54
	ld.u64 	%rd58, [%SP+560];
	ld.u64 	%rd59, [%SP+568];
	ld.u64 	%rd60, [%SP+576];
	ld.u64 	%rd61, [%SP+584];
	ld.u64 	%rd62, [%SP+592];
	ld.u64 	%rd63, [%SP+600];
	add.u64 	%rd64, %SP, 480;
	{ // callseq 55, 0
	.reg .b32 temp_param_reg;
	.param .b64 param0;
	st.param.b64 	[param0+0], %rd64;
	.param .align 8 .b8 param1[24];
	st.param.b64 	[param1+0], %rd58;
	st.param.b64 	[param1+8], %rd59;
	st.param.b64 	[param1+16], %rd60;
	.param .align 8 .b8 param2[24];
	st.param.b64 	[param2+0], %rd61;
	st.param.b64 	[param2+8], %rd62;
	st.param.b64 	[param2+16], %rd63;
	call.uni 
	_ZN2cl4sycl6detail9item_baseC2E__ns1NS1_11index_arrayES3_, 
	(
	param0, 
	param1, 
	param2
	);
	} // callseq 55
	add.u64 	%rd65, %SP, 608;
	{ // callseq 56, 0
	.reg .b32 temp_param_reg;
	.param .b64 param0;
	st.param.b64 	[param0+0], %rd65;
	.param .b64 param1;
	st.param.b64 	[param1+0], %rd64;
	call.uni 
	_ZN2cl4sycl2idILi1EEC2E__ns1RKNS0_6detail9item_baseE, 
	(
	param0, 
	param1
	);
	} // callseq 56
	add.u64 	%rd66, %SP, 200;
	{ // callseq 57, 0
	.reg .b32 temp_param_reg;
	.param .b64 param0;
	st.param.b64 	[param0+0], %rd66;
	.param .b64 param1;
	st.param.b64 	[param1+0], %rd65;
	.param .b64 param2;
	st.param.b64 	[param2+0], %rd56;
	call.uni 
	_ZN2cl4sycl6memcpyIccyEE__ns1vPcPKcy, 
	(
	param0, 
	param1, 
	param2
	);
	} // callseq 57
	st.u64 	[%SP+144], %rd32;
	ld.u64 	%rd1, [%SP+144];
	{ // callseq 58, 0
	.reg .b32 temp_param_reg;
	.param .b64 param0;
	st.param.b64 	[param0+0], %rd66;
	.param .b32 param1;
	st.param.b32 	[param1+0], %r41;
	.param .b64 retval0;
	call.uni (retval0), 
	_ZNK2cl4sycl6detail16index_array_base3getE__ns1j, 
	(
	param0, 
	param1
	);
	ld.param.b64 	%rd67, [retval0+0];
	} // callseq 58
	st.u32 	[%SP+152], %rd67;
	mov.u16 	%rs1, 0;
	st.u8 	[%SP+156], %rs1;
	ld.u32 	%r44, [%rd1];
	st.u32 	[%SP+160], %r44;
	bra.uni 	LBB13_1;
LBB13_1:                                // =>This Inner Loop Header: Depth=1
	ld.u32 	%r45, [%SP+160];
	ld.u32 	%r46, [%rd1+4];
	setp.ge.s32 	%p1, %r45, %r46;
	@%p1 bra 	LBB13_5;
	bra.uni 	LBB13_2;
LBB13_2:                                //   in Loop: Header=BB13_1 Depth=1
	add.s64 	%rd71, %rd1, 8;
	ld.s32 	%rd72, [%SP+152];
	{ // callseq 60, 0
	.reg .b32 temp_param_reg;
	.param .b64 param0;
	st.param.b64 	[param0+0], %rd71;
	.param .b64 param1;
	st.param.b64 	[param1+0], %rd72;
	.param .align 8 .b8 retval0[32];
	call.uni (retval0), 
	_ZNK2cl4sycl6detail15accessor_commonIbLi2ELNS0_6access4modeE0ELNS3_6targetE1ELNS3_11placeholderE0EEixIbvEE__ns1NS0_12subscript_opILi1EbLi2ELS4_0ELS5_1ELS6_0EEEm, 
	(
	param0, 
	param1
	);
	ld.param.b64 	%rd73, [retval0+0];
	ld.param.b64 	%rd74, [retval0+8];
	ld.param.b64 	%rd75, [retval0+16];
	ld.param.b64 	%rd76, [retval0+24];
	} // callseq 60
	st.u64 	[%SP+168], %rd73;
	st.u64 	[%SP+192], %rd76;
	st.u64 	[%SP+184], %rd75;
	st.u64 	[%SP+176], %rd74;
	add.s64 	%rd77, %rd1, 64;
	ld.s32 	%rd78, [%SP+160];
	{ // callseq 61, 0
	.reg .b32 temp_param_reg;
	.param .b64 param0;
	st.param.b64 	[param0+0], %rd77;
	.param .b64 param1;
	st.param.b64 	[param1+0], %rd78;
	.param .b32 retval0;
	call.uni (retval0), 
	_ZNK2cl4sycl6detail15accessor_commonIiLi1ELNS0_6access4modeE0ELNS3_6targetE1ELNS3_11placeholderE0EEixIivEE__ns1im, 
	(
	param0, 
	param1
	);
	ld.param.b32 	%r47, [retval0+0];
	} // callseq 61
	cvt.s64.s32 	%rd79, %r47;
	add.u64 	%rd80, %SP, 168;
	{ // callseq 62, 0
	.reg .b32 temp_param_reg;
	.param .b64 param0;
	st.param.b64 	[param0+0], %rd80;
	.param .b64 param1;
	st.param.b64 	[param1+0], %rd79;
	.param .b32 retval0;
	call.uni (retval0), 
	_ZN2cl4sycl12subscript_opILi1EbLi2ELNS0_6access4modeE0ELNS2_6targetE1ELNS2_11placeholderE0EEixIbvEE__ns1bm, 
	(
	param0, 
	param1
	);
	ld.param.b32 	%r48, [retval0+0];
	} // callseq 62
	and.b32  	%r49, %r48, 1;
	setp.eq.b32 	%p3, %r49, 1;
	@!%p3 bra 	LBB13_4;
	bra.uni 	LBB13_3;
LBB13_3:                                //   in Loop: Header=BB13_1 Depth=1
	mov.u16 	%rs5, 1;
	st.u8 	[%SP+156], %rs5;
	bra.uni 	LBB13_4;
LBB13_4:                                //   in Loop: Header=BB13_1 Depth=1
	ld.u32 	%r50, [%SP+160];
	add.s32 	%r51, %r50, 1;
	st.u32 	[%SP+160], %r51;
	bra.uni 	LBB13_1;
LBB13_5:
	ld.u8 	%rs2, [%SP+156];
	and.b16  	%rs3, %rs2, 1;
	setp.eq.b16 	%p2, %rs3, 1;
	@!%p2 bra 	LBB13_7;
	bra.uni 	LBB13_6;
LBB13_6:
	add.s64 	%rd68, %rd1, 120;
	ld.s32 	%rd69, [%SP+152];
	{ // callseq 59, 0
	.reg .b32 temp_param_reg;
	.param .b64 param0;
	st.param.b64 	[param0+0], %rd68;
	.param .b64 param1;
	st.param.b64 	[param1+0], %rd69;
	.param .b64 retval0;
	call.uni (retval0), 
	_ZNK2cl4sycl6detail15accessor_commonIbLi1ELNS0_6access4modeE2ELNS3_6targetE1ELNS3_11placeholderE0EEixIbvEE__ns1RU3AS1bm, 
	(
	param0, 
	param1
	);
	ld.param.b64 	%rd70, [retval0+0];
	} // callseq 59
	mov.u16 	%rs4, 1;
	st.global.u8 	[%rd70], %rs4;
	bra.uni 	LBB13_7;
LBB13_7:
	ret;
}
                                        // -- End function
	// .globl	_ZN2cl4sycl6detail9item_baseC2E__ns1NS1_11index_arrayES3_S3_ // -- Begin function _ZN2cl4sycl6detail9item_baseC2E__ns1NS1_11index_arrayES3_S3_
.func _ZN2cl4sycl6detail9item_baseC2E__ns1NS1_11index_arrayES3_S3_(
	.param .b64 _ZN2cl4sycl6detail9item_baseC2E__ns1NS1_11index_arrayES3_S3__param_0,
	.param .align 8 .b8 _ZN2cl4sycl6detail9item_baseC2E__ns1NS1_11index_arrayES3_S3__param_1[24],
	.param .align 8 .b8 _ZN2cl4sycl6detail9item_baseC2E__ns1NS1_11index_arrayES3_S3__param_2[24],
	.param .align 8 .b8 _ZN2cl4sycl6detail9item_baseC2E__ns1NS1_11index_arrayES3_S3__param_3[24]
)                                       // @_ZN2cl4sycl6detail9item_baseC2E__ns1NS1_11index_arrayES3_S3_
{
	.local .align 8 .b8 	__local_depot14[80];
	.reg .b64 	%SP;
	.reg .b64 	%SPL;
	.reg .b32 	%r<4>;
	.reg .b64 	%rd<34>;

// %bb.0:
	mov.u64 	%SPL, __local_depot14;
	cvta.local.u64 	%SP, %SPL;
	mov.b64 	%rd4, _ZN2cl4sycl6detail9item_baseC2E__ns1NS1_11index_arrayES3_S3__param_3;
	mov.b64 	%rd3, _ZN2cl4sycl6detail9item_baseC2E__ns1NS1_11index_arrayES3_S3__param_2;
	mov.b64 	%rd2, _ZN2cl4sycl6detail9item_baseC2E__ns1NS1_11index_arrayES3_S3__param_1;
	ld.param.u64 	%rd1, [_ZN2cl4sycl6detail9item_baseC2E__ns1NS1_11index_arrayES3_S3__param_0];
	ld.param.u64 	%rd5, [_ZN2cl4sycl6detail9item_baseC2E__ns1NS1_11index_arrayES3_S3__param_3];
	ld.param.u64 	%rd6, [_ZN2cl4sycl6detail9item_baseC2E__ns1NS1_11index_arrayES3_S3__param_3+8];
	ld.param.u64 	%rd7, [_ZN2cl4sycl6detail9item_baseC2E__ns1NS1_11index_arrayES3_S3__param_3+16];
	st.u64 	[%SP+16], %rd7;
	st.u64 	[%SP+8], %rd6;
	st.u64 	[%SP+0], %rd5;
	ld.param.u64 	%rd8, [_ZN2cl4sycl6detail9item_baseC2E__ns1NS1_11index_arrayES3_S3__param_2];
	ld.param.u64 	%rd9, [_ZN2cl4sycl6detail9item_baseC2E__ns1NS1_11index_arrayES3_S3__param_2+8];
	ld.param.u64 	%rd10, [_ZN2cl4sycl6detail9item_baseC2E__ns1NS1_11index_arrayES3_S3__param_2+16];
	st.u64 	[%SP+40], %rd10;
	st.u64 	[%SP+32], %rd9;
	st.u64 	[%SP+24], %rd8;
	ld.param.u64 	%rd11, [_ZN2cl4sycl6detail9item_baseC2E__ns1NS1_11index_arrayES3_S3__param_1];
	ld.param.u64 	%rd12, [_ZN2cl4sycl6detail9item_baseC2E__ns1NS1_11index_arrayES3_S3__param_1+8];
	ld.param.u64 	%rd13, [_ZN2cl4sycl6detail9item_baseC2E__ns1NS1_11index_arrayES3_S3__param_1+16];
	st.u64 	[%SP+64], %rd13;
	st.u64 	[%SP+56], %rd12;
	st.u64 	[%SP+48], %rd11;
	st.u64 	[%SP+72], %rd1;
	ld.u64 	%rd14, [%SP+72];
	add.u64 	%rd15, %SP, 48;
	mov.u64 	%rd16, 24;
	{ // callseq 63, 0
	.reg .b32 temp_param_reg;
	.param .b64 param0;
	st.param.b64 	[param0+0], %rd14;
	.param .b64 param1;
	st.param.b64 	[param1+0], %rd15;
	.param .b64 param2;
	st.param.b64 	[param2+0], %rd16;
	call.uni 
	_ZN2cl4sycl6memcpyIccyEE__ns1vPcPKcy, 
	(
	param0, 
	param1, 
	param2
	);
	} // callseq 63
	add.s64 	%rd17, %rd14, 24;
	add.u64 	%rd18, %SP, 24;
	{ // callseq 64, 0
	.reg .b32 temp_param_reg;
	.param .b64 param0;
	st.param.b64 	[param0+0], %rd17;
	.param .b64 param1;
	st.param.b64 	[param1+0], %rd18;
	.param .b64 param2;
	st.param.b64 	[param2+0], %rd16;
	call.uni 
	_ZN2cl4sycl6memcpyIccyEE__ns1vPcPKcy, 
	(
	param0, 
	param1, 
	param2
	);
	} // callseq 64
	add.s64 	%rd19, %rd14, 48;
	add.u64 	%rd20, %SP, 0;
	{ // callseq 65, 0
	.reg .b32 temp_param_reg;
	.param .b64 param0;
	st.param.b64 	[param0+0], %rd19;
	.param .b64 param1;
	st.param.b64 	[param1+0], %rd20;
	.param .b64 param2;
	st.param.b64 	[param2+0], %rd16;
	call.uni 
	_ZN2cl4sycl6memcpyIccyEE__ns1vPcPKcy, 
	(
	param0, 
	param1, 
	param2
	);
	} // callseq 65
	mov.u32 	%r1, 0;
	{ // callseq 66, 0
	.reg .b32 temp_param_reg;
	.param .b64 param0;
	st.param.b64 	[param0+0], %rd14;
	.param .b32 param1;
	st.param.b32 	[param1+0], %r1;
	.param .b64 retval0;
	call.uni (retval0), 
	_ZN2cl4sycl6detail11index_arrayixE__ns1j, 
	(
	param0, 
	param1
	);
	ld.param.b64 	%rd21, [retval0+0];
	} // callseq 66
	ld.u64 	%rd22, [%rd21];
	mov.u32 	%r2, 1;
	{ // callseq 67, 0
	.reg .b32 temp_param_reg;
	.param .b64 param0;
	st.param.b64 	[param0+0], %rd14;
	.param .b32 param1;
	st.param.b32 	[param1+0], %r2;
	.param .b64 retval0;
	call.uni (retval0), 
	_ZN2cl4sycl6detail11index_arrayixE__ns1j, 
	(
	param0, 
	param1
	);
	ld.param.b64 	%rd23, [retval0+0];
	} // callseq 67
	ld.u64 	%rd24, [%rd23];
	mov.u32 	%r3, 2;
	{ // callseq 68, 0
	.reg .b32 temp_param_reg;
	.param .b64 param0;
	st.param.b64 	[param0+0], %rd14;
	.param .b32 param1;
	st.param.b32 	[param1+0], %r3;
	.param .b64 retval0;
	call.uni (retval0), 
	_ZN2cl4sycl6detail11index_arrayixE__ns1j, 
	(
	param0, 
	param1
	);
	ld.param.b64 	%rd25, [retval0+0];
	} // callseq 68
	ld.u64 	%rd26, [%rd25];
	{ // callseq 69, 0
	.reg .b32 temp_param_reg;
	.param .b64 param0;
	st.param.b64 	[param0+0], %rd17;
	.param .b32 param1;
	st.param.b32 	[param1+0], %r1;
	.param .b64 retval0;
	call.uni (retval0), 
	_ZN2cl4sycl6detail11index_arrayixE__ns1j, 
	(
	param0, 
	param1
	);
	ld.param.b64 	%rd27, [retval0+0];
	} // callseq 69
	ld.u64 	%rd28, [%rd27];
	{ // callseq 70, 0
	.reg .b32 temp_param_reg;
	.param .b64 param0;
	st.param.b64 	[param0+0], %rd17;
	.param .b32 param1;
	st.param.b32 	[param1+0], %r2;
	.param .b64 retval0;
	call.uni (retval0), 
	_ZN2cl4sycl6detail11index_arrayixE__ns1j, 
	(
	param0, 
	param1
	);
	ld.param.b64 	%rd29, [retval0+0];
	} // callseq 70
	ld.u64 	%rd30, [%rd29];
	{ // callseq 71, 0
	.reg .b32 temp_param_reg;
	.param .b64 param0;
	st.param.b64 	[param0+0], %rd17;
	.param .b32 param1;
	st.param.b32 	[param1+0], %r3;
	.param .b64 retval0;
	call.uni (retval0), 
	_ZN2cl4sycl6detail11index_arrayixE__ns1j, 
	(
	param0, 
	param1
	);
	ld.param.b64 	%rd31, [retval0+0];
	} // callseq 71
	ld.u64 	%rd32, [%rd31];
	{ // callseq 72, 0
	.reg .b32 temp_param_reg;
	.param .b64 param0;
	st.param.b64 	[param0+0], %rd22;
	.param .b64 param1;
	st.param.b64 	[param1+0], %rd24;
	.param .b64 param2;
	st.param.b64 	[param2+0], %rd26;
	.param .b64 param3;
	st.param.b64 	[param3+0], %rd28;
	.param .b64 param4;
	st.param.b64 	[param4+0], %rd30;
	.param .b64 param5;
	st.param.b64 	[param5+0], %rd32;
	.param .b64 retval0;
	call.uni (retval0), 
	_ZN2cl4sycl6detail32construct_linear_row_major_indexILm3EEE__ns1mmmmmmm, 
	(
	param0, 
	param1, 
	param2, 
	param3, 
	param4, 
	param5
	);
	ld.param.b64 	%rd33, [retval0+0];
	} // callseq 72
	st.u64 	[%rd14+72], %rd33;
	ret;
}
                                        // -- End function
	// .globl	_ZN2cl4sycl6detail11index_arrayixE__ns1j // -- Begin function _ZN2cl4sycl6detail11index_arrayixE__ns1j
.func  (.param .b64 func_retval0) _ZN2cl4sycl6detail11index_arrayixE__ns1j(
	.param .b64 _ZN2cl4sycl6detail11index_arrayixE__ns1j_param_0,
	.param .b32 _ZN2cl4sycl6detail11index_arrayixE__ns1j_param_1
)                                       // @_ZN2cl4sycl6detail11index_arrayixE__ns1j
{
	.local .align 8 .b8 	__local_depot15[16];
	.reg .b64 	%SP;
	.reg .b64 	%SPL;
	.reg .pred 	%p<2>;
	.reg .b32 	%r<3>;
	.reg .b64 	%rd<6>;

// %bb.0:
	mov.u64 	%SPL, __local_depot15;
	cvta.local.u64 	%SP, %SPL;
	ld.param.u32 	%r1, [_ZN2cl4sycl6detail11index_arrayixE__ns1j_param_1];
	ld.param.u64 	%rd2, [_ZN2cl4sycl6detail11index_arrayixE__ns1j_param_0];
	st.u64 	[%SP+0], %rd2;
	st.u32 	[%SP+8], %r1;
	ld.u64 	%rd1, [%SP+0];
	ld.u32 	%r2, [%SP+8];
	setp.lt.u32 	%p1, %r2, 3;
	@%p1 bra 	LBB15_2;
	bra.uni 	LBB15_1;
LBB15_1:
	bra.uni 	LBB15_2;
LBB15_2:
	ld.u32 	%rd3, [%SP+8];
	shl.b64 	%rd4, %rd3, 3;
	add.s64 	%rd5, %rd1, %rd4;
	st.param.b64 	[func_retval0+0], %rd5;
	ret;
}
                                        // -- End function
	// .globl	_ZNK2cl4sycl6detail16index_array_base3getE__ns1j // -- Begin function _ZNK2cl4sycl6detail16index_array_base3getE__ns1j
.func  (.param .b64 func_retval0) _ZNK2cl4sycl6detail16index_array_base3getE__ns1j(
	.param .b64 _ZNK2cl4sycl6detail16index_array_base3getE__ns1j_param_0,
	.param .b32 _ZNK2cl4sycl6detail16index_array_base3getE__ns1j_param_1
)                                       // @_ZNK2cl4sycl6detail16index_array_base3getE__ns1j
{
	.local .align 8 .b8 	__local_depot16[16];
	.reg .b64 	%SP;
	.reg .b64 	%SPL;
	.reg .b32 	%r<3>;
	.reg .b64 	%rd<4>;

// %bb.0:
	mov.u64 	%SPL, __local_depot16;
	cvta.local.u64 	%SP, %SPL;
	ld.param.u32 	%r1, [_ZNK2cl4sycl6detail16index_array_base3getE__ns1j_param_1];
	ld.param.u64 	%rd1, [_ZNK2cl4sycl6detail16index_array_base3getE__ns1j_param_0];
	st.u64 	[%SP+0], %rd1;
	st.u32 	[%SP+8], %r1;
	ld.u64 	%rd2, [%SP+0];
	ld.u32 	%r2, [%SP+8];
	{ // callseq 73, 0
	.reg .b32 temp_param_reg;
	.param .b64 param0;
	st.param.b64 	[param0+0], %rd2;
	.param .b32 param1;
	st.param.b32 	[param1+0], %r2;
	.param .b64 retval0;
	call.uni (retval0), 
	_ZNK2cl4sycl6detail11index_arrayixE__ns1j, 
	(
	param0, 
	param1
	);
	ld.param.b64 	%rd3, [retval0+0];
	} // callseq 73
	st.param.b64 	[func_retval0+0], %rd3;
	ret;
}
                                        // -- End function
	// .globl	_ZNK2cl4sycl6detail15accessor_commonI5PointLi1ELNS0_6access4modeE0ELNS4_6targetE1ELNS4_11placeholderE0EEixIS3_vEE__ns1S3_m // -- Begin function _ZNK2cl4sycl6detail15accessor_commonI5PointLi1ELNS0_6access4modeE0ELNS4_6targetE1ELNS4_11placeholderE0EEixIS3_vEE__ns1S3_m
.func  (.param .align 4 .b8 func_retval0[12]) _ZNK2cl4sycl6detail15accessor_commonI5PointLi1ELNS0_6access4modeE0ELNS4_6targetE1ELNS4_11placeholderE0EEixIS3_vEE__ns1S3_m(
	.param .b64 _ZNK2cl4sycl6detail15accessor_commonI5PointLi1ELNS0_6access4modeE0ELNS4_6targetE1ELNS4_11placeholderE0EEixIS3_vEE__ns1S3_m_param_0,
	.param .b64 _ZNK2cl4sycl6detail15accessor_commonI5PointLi1ELNS0_6access4modeE0ELNS4_6targetE1ELNS4_11placeholderE0EEixIS3_vEE__ns1S3_m_param_1
)                                       // @_ZNK2cl4sycl6detail15accessor_commonI5PointLi1ELNS0_6access4modeE0ELNS4_6targetE1ELNS4_11placeholderE0EEixIS3_vEE__ns1S3_m
{
	.local .align 8 .b8 	__local_depot17[32];
	.reg .b64 	%SP;
	.reg .b64 	%SPL;
	.reg .f32 	%f<4>;
	.reg .b64 	%rd<11>;

// %bb.0:
	mov.u64 	%SPL, __local_depot17;
	cvta.local.u64 	%SP, %SPL;
	ld.param.u64 	%rd2, [_ZNK2cl4sycl6detail15accessor_commonI5PointLi1ELNS0_6access4modeE0ELNS4_6targetE1ELNS4_11placeholderE0EEixIS3_vEE__ns1S3_m_param_1];
	ld.param.u64 	%rd1, [_ZNK2cl4sycl6detail15accessor_commonI5PointLi1ELNS0_6access4modeE0ELNS4_6targetE1ELNS4_11placeholderE0EEixIS3_vEE__ns1S3_m_param_0];
	st.u64 	[%SP+16], %rd1;
	st.u64 	[%SP+24], %rd2;
	ld.u64 	%rd3, [%SP+16];
	{ // callseq 74, 0
	.reg .b32 temp_param_reg;
	.param .b64 param0;
	st.param.b64 	[param0+0], %rd3;
	.param .b64 retval0;
	call.uni (retval0), 
	_ZNK2cl4sycl6detail15accessor_commonI5PointLi1ELNS0_6access4modeE0ELNS4_6targetE1ELNS4_11placeholderE0EE14get_device_ptrE__ns1v, 
	(
	param0
	);
	ld.param.b64 	%rd4, [retval0+0];
	} // callseq 74
	ld.u64 	%rd5, [%SP+24];
	mul.lo.s64 	%rd6, %rd5, 12;
	add.s64 	%rd7, %rd4, %rd6;
	add.u64 	%rd8, %SP, 0;
	mov.u64 	%rd9, 12;
	{ // callseq 75, 0
	.reg .b32 temp_param_reg;
	.param .b64 param0;
	st.param.b64 	[param0+0], %rd8;
	.param .b64 param1;
	st.param.b64 	[param1+0], %rd7;
	.param .b64 param2;
	st.param.b64 	[param2+0], %rd9;
	call.uni 
	_ZN2cl4sycl6memcpyIcU3AS1cyEE__ns1vPcPU3AS1Kcy, 
	(
	param0, 
	param1, 
	param2
	);
	} // callseq 75
	or.b64  	%rd10, %rd8, 4;
	ld.f32 	%f1, [%rd10];
	ld.f32 	%f2, [%SP+8];
	ld.f32 	%f3, [%SP+0];
	st.param.f32 	[func_retval0+0], %f3;
	st.param.f32 	[func_retval0+4], %f1;
	st.param.f32 	[func_retval0+8], %f2;
	ret;
}
                                        // -- End function
	// .globl	_ZNK2cl4sycl6detail15accessor_commonIbLi2ELNS0_6access4modeE1ELNS3_6targetE1ELNS3_11placeholderE0EEixIbvEE__ns1NS0_12subscript_opILi1EbLi2ELS4_1ELS5_1ELS6_0EEEm // -- Begin function _ZNK2cl4sycl6detail15accessor_commonIbLi2ELNS0_6access4modeE1ELNS3_6targetE1ELNS3_11placeholderE0EEixIbvEE__ns1NS0_12subscript_opILi1EbLi2ELS4_1ELS5_1ELS6_0EEEm
.func  (.param .align 8 .b8 func_retval0[32]) _ZNK2cl4sycl6detail15accessor_commonIbLi2ELNS0_6access4modeE1ELNS3_6targetE1ELNS3_11placeholderE0EEixIbvEE__ns1NS0_12subscript_opILi1EbLi2ELS4_1ELS5_1ELS6_0EEEm(
	.param .b64 _ZNK2cl4sycl6detail15accessor_commonIbLi2ELNS0_6access4modeE1ELNS3_6targetE1ELNS3_11placeholderE0EEixIbvEE__ns1NS0_12subscript_opILi1EbLi2ELS4_1ELS5_1ELS6_0EEEm_param_0,
	.param .b64 _ZNK2cl4sycl6detail15accessor_commonIbLi2ELNS0_6access4modeE1ELNS3_6targetE1ELNS3_11placeholderE0EEixIbvEE__ns1NS0_12subscript_opILi1EbLi2ELS4_1ELS5_1ELS6_0EEEm_param_1
)                                       // @_ZNK2cl4sycl6detail15accessor_commonIbLi2ELNS0_6access4modeE1ELNS3_6targetE1ELNS3_11placeholderE0EEixIbvEE__ns1NS0_12subscript_opILi1EbLi2ELS4_1ELS5_1ELS6_0EEEm
{
	.local .align 8 .b8 	__local_depot18[96];
	.reg .b64 	%SP;
	.reg .b64 	%SPL;
	.reg .b64 	%rd<17>;

// %bb.0:
	mov.u64 	%SPL, __local_depot18;
	cvta.local.u64 	%SP, %SPL;
	ld.param.u64 	%rd2, [_ZNK2cl4sycl6detail15accessor_commonIbLi2ELNS0_6access4modeE1ELNS3_6targetE1ELNS3_11placeholderE0EEixIbvEE__ns1NS0_12subscript_opILi1EbLi2ELS4_1ELS5_1ELS6_0EEEm_param_1];
	ld.param.u64 	%rd1, [_ZNK2cl4sycl6detail15accessor_commonIbLi2ELNS0_6access4modeE1ELNS3_6targetE1ELNS3_11placeholderE0EEixIbvEE__ns1NS0_12subscript_opILi1EbLi2ELS4_1ELS5_1ELS6_0EEEm_param_0];
	st.u64 	[%SP+32], %rd1;
	st.u64 	[%SP+40], %rd2;
	ld.u64 	%rd3, [%SP+32];
	ld.u64 	%rd4, [%SP+40];
	add.u64 	%rd5, %SP, 48;
	mov.u64 	%rd6, 0;
	{ // callseq 76, 0
	.reg .b32 temp_param_reg;
	.param .b64 param0;
	st.param.b64 	[param0+0], %rd5;
	.param .b64 param1;
	st.param.b64 	[param1+0], %rd4;
	.param .b64 param2;
	st.param.b64 	[param2+0], %rd6;
	.param .b64 param3;
	st.param.b64 	[param3+0], %rd6;
	call.uni 
	_ZN2cl4sycl6detail11index_arrayC2E__ns1mmm, 
	(
	param0, 
	param1, 
	param2, 
	param3
	);
	} // callseq 76
	add.u64 	%rd7, %SP, 72;
	mov.u64 	%rd8, 24;
	{ // callseq 77, 0
	.reg .b32 temp_param_reg;
	.param .b64 param0;
	st.param.b64 	[param0+0], %rd7;
	.param .b64 param1;
	st.param.b64 	[param1+0], %rd5;
	.param .b64 param2;
	st.param.b64 	[param2+0], %rd8;
	call.uni 
	_ZN2cl4sycl6memcpyIccyEE__ns1vPcPKcy, 
	(
	param0, 
	param1, 
	param2
	);
	} // callseq 77
	ld.u64 	%rd9, [%SP+72];
	ld.u64 	%rd10, [%SP+80];
	ld.u64 	%rd11, [%SP+88];
	add.u64 	%rd12, %SP, 0;
	{ // callseq 78, 0
	.reg .b32 temp_param_reg;
	.param .b64 param0;
	st.param.b64 	[param0+0], %rd12;
	.param .b64 param1;
	st.param.b64 	[param1+0], %rd3;
	.param .align 8 .b8 param2[24];
	st.param.b64 	[param2+0], %rd9;
	st.param.b64 	[param2+8], %rd10;
	st.param.b64 	[param2+16], %rd11;
	call.uni 
	_ZN2cl4sycl12subscript_opILi1EbLi2ELNS0_6access4modeE1ELNS2_6targetE1ELNS2_11placeholderE0EEC2E__ns1RKNS0_6detail15accessor_commonIbLi2ELS3_1ELS4_1ELS5_0EEENS7_11index_arrayE, 
	(
	param0, 
	param1, 
	param2
	);
	} // callseq 78
	ld.u64 	%rd13, [%SP+24];
	ld.u64 	%rd14, [%SP+16];
	ld.u64 	%rd15, [%SP+8];
	ld.u64 	%rd16, [%SP+0];
	st.param.b64 	[func_retval0+0], %rd16;
	st.param.b64 	[func_retval0+8], %rd15;
	st.param.b64 	[func_retval0+16], %rd14;
	st.param.b64 	[func_retval0+24], %rd13;
	ret;
}
                                        // -- End function
	// .globl	_ZN2cl4sycl12subscript_opILi1EbLi2ELNS0_6access4modeE1ELNS2_6targetE1ELNS2_11placeholderE0EEixIbvEE__ns1RU3AS1bm // -- Begin function _ZN2cl4sycl12subscript_opILi1EbLi2ELNS0_6access4modeE1ELNS2_6targetE1ELNS2_11placeholderE0EEixIbvEE__ns1RU3AS1bm
.func  (.param .b64 func_retval0) _ZN2cl4sycl12subscript_opILi1EbLi2ELNS0_6access4modeE1ELNS2_6targetE1ELNS2_11placeholderE0EEixIbvEE__ns1RU3AS1bm(
	.param .b64 _ZN2cl4sycl12subscript_opILi1EbLi2ELNS0_6access4modeE1ELNS2_6targetE1ELNS2_11placeholderE0EEixIbvEE__ns1RU3AS1bm_param_0,
	.param .b64 _ZN2cl4sycl12subscript_opILi1EbLi2ELNS0_6access4modeE1ELNS2_6targetE1ELNS2_11placeholderE0EEixIbvEE__ns1RU3AS1bm_param_1
)                                       // @_ZN2cl4sycl12subscript_opILi1EbLi2ELNS0_6access4modeE1ELNS2_6targetE1ELNS2_11placeholderE0EEixIbvEE__ns1RU3AS1bm
{
	.local .align 8 .b8 	__local_depot19[40];
	.reg .b64 	%SP;
	.reg .b64 	%SPL;
	.reg .b32 	%r<2>;
	.reg .b64 	%rd<13>;

// %bb.0:
	mov.u64 	%SPL, __local_depot19;
	cvta.local.u64 	%SP, %SPL;
	ld.param.u64 	%rd2, [_ZN2cl4sycl12subscript_opILi1EbLi2ELNS0_6access4modeE1ELNS2_6targetE1ELNS2_11placeholderE0EEixIbvEE__ns1RU3AS1bm_param_1];
	ld.param.u64 	%rd1, [_ZN2cl4sycl12subscript_opILi1EbLi2ELNS0_6access4modeE1ELNS2_6targetE1ELNS2_11placeholderE0EEixIbvEE__ns1RU3AS1bm_param_0];
	st.u64 	[%SP+0], %rd1;
	st.u64 	[%SP+8], %rd2;
	ld.u64 	%rd3, [%SP+0];
	ld.u64 	%rd4, [%SP+8];
	add.s64 	%rd5, %rd3, 8;
	mov.u32 	%r1, 1;
	{ // callseq 79, 0
	.reg .b32 temp_param_reg;
	.param .b64 param0;
	st.param.b64 	[param0+0], %rd5;
	.param .b32 param1;
	st.param.b32 	[param1+0], %r1;
	.param .b64 retval0;
	call.uni (retval0), 
	_ZN2cl4sycl6detail11index_arrayixE__ns1j, 
	(
	param0, 
	param1
	);
	ld.param.b64 	%rd6, [retval0+0];
	} // callseq 79
	st.u64 	[%rd6], %rd4;
	ld.u64 	%rd7, [%rd3];
	add.u64 	%rd8, %SP, 16;
	{ // callseq 80, 0
	.reg .b32 temp_param_reg;
	.param .b64 param0;
	st.param.b64 	[param0+0], %rd8;
	.param .b64 param1;
	st.param.b64 	[param1+0], %rd5;
	call.uni 
	_ZN2cl4sycl2idILi2EEC2E__ns1RKNS0_6detail11index_arrayE, 
	(
	param0, 
	param1
	);
	} // callseq 80
	ld.u64 	%rd9, [%SP+16];
	ld.u64 	%rd10, [%SP+24];
	ld.u64 	%rd11, [%SP+32];
	{ // callseq 81, 0
	.reg .b32 temp_param_reg;
	.param .b64 param0;
	st.param.b64 	[param0+0], %rd7;
	.param .align 8 .b8 param1[24];
	st.param.b64 	[param1+0], %rd9;
	st.param.b64 	[param1+8], %rd10;
	st.param.b64 	[param1+16], %rd11;
	.param .b64 retval0;
	call.uni (retval0), 
	_ZNK2cl4sycl6detail15accessor_commonIbLi2ELNS0_6access4modeE1ELNS3_6targetE1ELNS3_11placeholderE0EEixIbvEE__ns1RU3AS1bNS0_2idILi2EEE, 
	(
	param0, 
	param1
	);
	ld.param.b64 	%rd12, [retval0+0];
	} // callseq 81
	st.param.b64 	[func_retval0+0], %rd12;
	ret;
}
                                        // -- End function
	// .globl	_ZNK2cl4sycl6detail11index_arrayixE__ns1j // -- Begin function _ZNK2cl4sycl6detail11index_arrayixE__ns1j
.func  (.param .b64 func_retval0) _ZNK2cl4sycl6detail11index_arrayixE__ns1j(
	.param .b64 _ZNK2cl4sycl6detail11index_arrayixE__ns1j_param_0,
	.param .b32 _ZNK2cl4sycl6detail11index_arrayixE__ns1j_param_1
)                                       // @_ZNK2cl4sycl6detail11index_arrayixE__ns1j
{
	.local .align 8 .b8 	__local_depot20[16];
	.reg .b64 	%SP;
	.reg .b64 	%SPL;
	.reg .pred 	%p<2>;
	.reg .b32 	%r<3>;
	.reg .b64 	%rd<7>;

// %bb.0:
	mov.u64 	%SPL, __local_depot20;
	cvta.local.u64 	%SP, %SPL;
	ld.param.u32 	%r1, [_ZNK2cl4sycl6detail11index_arrayixE__ns1j_param_1];
	ld.param.u64 	%rd2, [_ZNK2cl4sycl6detail11index_arrayixE__ns1j_param_0];
	st.u64 	[%SP+0], %rd2;
	st.u32 	[%SP+8], %r1;
	ld.u64 	%rd1, [%SP+0];
	ld.u32 	%r2, [%SP+8];
	setp.lt.u32 	%p1, %r2, 3;
	@%p1 bra 	LBB20_2;
	bra.uni 	LBB20_1;
LBB20_1:
	bra.uni 	LBB20_2;
LBB20_2:
	ld.u32 	%rd3, [%SP+8];
	shl.b64 	%rd4, %rd3, 3;
	add.s64 	%rd5, %rd1, %rd4;
	ld.u64 	%rd6, [%rd5];
	st.param.b64 	[func_retval0+0], %rd6;
	ret;
}
                                        // -- End function
	// .globl	_ZNK2cl4sycl6detail15accessor_commonI5PointLi1ELNS0_6access4modeE0ELNS4_6targetE1ELNS4_11placeholderE0EE14get_device_ptrE__ns1v // -- Begin function _ZNK2cl4sycl6detail15accessor_commonI5PointLi1ELNS0_6access4modeE0ELNS4_6targetE1ELNS4_11placeholderE0EE14get_device_ptrE__ns1v
.func  (.param .b64 func_retval0) _ZNK2cl4sycl6detail15accessor_commonI5PointLi1ELNS0_6access4modeE0ELNS4_6targetE1ELNS4_11placeholderE0EE14get_device_ptrE__ns1v(
	.param .b64 _ZNK2cl4sycl6detail15accessor_commonI5PointLi1ELNS0_6access4modeE0ELNS4_6targetE1ELNS4_11placeholderE0EE14get_device_ptrE__ns1v_param_0
)                                       // @_ZNK2cl4sycl6detail15accessor_commonI5PointLi1ELNS0_6access4modeE0ELNS4_6targetE1ELNS4_11placeholderE0EE14get_device_ptrE__ns1v
{
	.local .align 8 .b8 	__local_depot21[8];
	.reg .b64 	%SP;
	.reg .b64 	%SPL;
	.reg .b64 	%rd<4>;

// %bb.0:
	mov.u64 	%SPL, __local_depot21;
	cvta.local.u64 	%SP, %SPL;
	ld.param.u64 	%rd1, [_ZNK2cl4sycl6detail15accessor_commonI5PointLi1ELNS0_6access4modeE0ELNS4_6targetE1ELNS4_11placeholderE0EE14get_device_ptrE__ns1v_param_0];
	st.u64 	[%SP+0], %rd1;
	ld.u64 	%rd2, [%SP+0];
	{ // callseq 82, 0
	.reg .b32 temp_param_reg;
	.param .b64 param0;
	st.param.b64 	[param0+0], %rd2;
	.param .b64 retval0;
	call.uni (retval0), 
	_ZNK2cl4sycl10device_argI5PointLi1ELNS0_6access4modeE0ELNS3_6targetE1ELNS3_11placeholderE0EE7get_ptrE__ns1v, 
	(
	param0
	);
	ld.param.b64 	%rd3, [retval0+0];
	} // callseq 82
	st.param.b64 	[func_retval0+0], %rd3;
	ret;
}
                                        // -- End function
	// .globl	_ZNK2cl4sycl10device_argI5PointLi1ELNS0_6access4modeE0ELNS3_6targetE1ELNS3_11placeholderE0EE7get_ptrE__ns1v // -- Begin function _ZNK2cl4sycl10device_argI5PointLi1ELNS0_6access4modeE0ELNS3_6targetE1ELNS3_11placeholderE0EE7get_ptrE__ns1v
.func  (.param .b64 func_retval0) _ZNK2cl4sycl10device_argI5PointLi1ELNS0_6access4modeE0ELNS3_6targetE1ELNS3_11placeholderE0EE7get_ptrE__ns1v(
	.param .b64 _ZNK2cl4sycl10device_argI5PointLi1ELNS0_6access4modeE0ELNS3_6targetE1ELNS3_11placeholderE0EE7get_ptrE__ns1v_param_0
)                                       // @_ZNK2cl4sycl10device_argI5PointLi1ELNS0_6access4modeE0ELNS3_6targetE1ELNS3_11placeholderE0EE7get_ptrE__ns1v
{
	.local .align 8 .b8 	__local_depot22[16];
	.reg .b64 	%SP;
	.reg .b64 	%SPL;
	.reg .b64 	%rd<6>;

// %bb.0:
	mov.u64 	%SPL, __local_depot22;
	cvta.local.u64 	%SP, %SPL;
	ld.param.u64 	%rd1, [_ZNK2cl4sycl10device_argI5PointLi1ELNS0_6access4modeE0ELNS3_6targetE1ELNS3_11placeholderE0EE7get_ptrE__ns1v_param_0];
	st.u64 	[%SP+0], %rd1;
	ld.u64 	%rd2, [%SP+0];
	ld.u64 	%rd3, [%rd2];
	add.u64 	%rd4, %SP, 8;
	{ // callseq 83, 0
	.reg .b32 temp_param_reg;
	.param .b64 param0;
	st.param.b64 	[param0+0], %rd4;
	.param .b64 param1;
	st.param.b64 	[param1+0], %rd3;
	call.uni 
	_ZN2cl4sycl9multi_ptrI5PointLNS0_6access13address_spaceE1EEC2E__ns1PU3AS1S2_, 
	(
	param0, 
	param1
	);
	} // callseq 83
	{ // callseq 84, 0
	.reg .b32 temp_param_reg;
	.param .b64 param0;
	st.param.b64 	[param0+0], %rd4;
	.param .b64 retval0;
	call.uni (retval0), 
	_ZNK2cl4sycl6detail14multi_ptr_baseI5PointLNS0_6access13address_spaceE1EEcvPS3_E__ns1v, 
	(
	param0
	);
	ld.param.b64 	%rd5, [retval0+0];
	} // callseq 84
	st.param.b64 	[func_retval0+0], %rd5;
	ret;
}
                                        // -- End function
	// .globl	_ZN2cl4sycl9multi_ptrI5PointLNS0_6access13address_spaceE1EEC2E__ns1PU3AS1S2_ // -- Begin function _ZN2cl4sycl9multi_ptrI5PointLNS0_6access13address_spaceE1EEC2E__ns1PU3AS1S2_
.func _ZN2cl4sycl9multi_ptrI5PointLNS0_6access13address_spaceE1EEC2E__ns1PU3AS1S2_(
	.param .b64 _ZN2cl4sycl9multi_ptrI5PointLNS0_6access13address_spaceE1EEC2E__ns1PU3AS1S2__param_0,
	.param .b64 _ZN2cl4sycl9multi_ptrI5PointLNS0_6access13address_spaceE1EEC2E__ns1PU3AS1S2__param_1
)                                       // @_ZN2cl4sycl9multi_ptrI5PointLNS0_6access13address_spaceE1EEC2E__ns1PU3AS1S2_
{
	.local .align 8 .b8 	__local_depot23[16];
	.reg .b64 	%SP;
	.reg .b64 	%SPL;
	.reg .b64 	%rd<5>;

// %bb.0:
	mov.u64 	%SPL, __local_depot23;
	cvta.local.u64 	%SP, %SPL;
	ld.param.u64 	%rd2, [_ZN2cl4sycl9multi_ptrI5PointLNS0_6access13address_spaceE1EEC2E__ns1PU3AS1S2__param_1];
	ld.param.u64 	%rd1, [_ZN2cl4sycl9multi_ptrI5PointLNS0_6access13address_spaceE1EEC2E__ns1PU3AS1S2__param_0];
	st.u64 	[%SP+0], %rd1;
	st.u64 	[%SP+8], %rd2;
	ld.u64 	%rd3, [%SP+0];
	ld.u64 	%rd4, [%SP+8];
	{ // callseq 85, 0
	.reg .b32 temp_param_reg;
	.param .b64 param0;
	st.param.b64 	[param0+0], %rd3;
	.param .b64 param1;
	st.param.b64 	[param1+0], %rd4;
	call.uni 
	_ZN2cl4sycl6detail14multi_ptr_baseI5PointLNS0_6access13address_spaceE1EEC2E__ns1PU3AS1S3_, 
	(
	param0, 
	param1
	);
	} // callseq 85
	ret;
}
                                        // -- End function
	// .globl	_ZNK2cl4sycl6detail14multi_ptr_baseI5PointLNS0_6access13address_spaceE1EEcvPS3_E__ns1v // -- Begin function _ZNK2cl4sycl6detail14multi_ptr_baseI5PointLNS0_6access13address_spaceE1EEcvPS3_E__ns1v
.func  (.param .b64 func_retval0) _ZNK2cl4sycl6detail14multi_ptr_baseI5PointLNS0_6access13address_spaceE1EEcvPS3_E__ns1v(
	.param .b64 _ZNK2cl4sycl6detail14multi_ptr_baseI5PointLNS0_6access13address_spaceE1EEcvPS3_E__ns1v_param_0
)                                       // @_ZNK2cl4sycl6detail14multi_ptr_baseI5PointLNS0_6access13address_spaceE1EEcvPS3_E__ns1v
{
	.local .align 8 .b8 	__local_depot24[8];
	.reg .b64 	%SP;
	.reg .b64 	%SPL;
	.reg .b64 	%rd<4>;

// %bb.0:
	mov.u64 	%SPL, __local_depot24;
	cvta.local.u64 	%SP, %SPL;
	ld.param.u64 	%rd1, [_ZNK2cl4sycl6detail14multi_ptr_baseI5PointLNS0_6access13address_spaceE1EEcvPS3_E__ns1v_param_0];
	st.u64 	[%SP+0], %rd1;
	ld.u64 	%rd2, [%SP+0];
	{ // callseq 86, 0
	.reg .b32 temp_param_reg;
	.param .b64 param0;
	st.param.b64 	[param0+0], %rd2;
	.param .b64 retval0;
	call.uni (retval0), 
	_ZNK2cl4sycl6detail14multi_ptr_baseI5PointLNS0_6access13address_spaceE1EE20get_pointer_internalE__ns1v, 
	(
	param0
	);
	ld.param.b64 	%rd3, [retval0+0];
	} // callseq 86
	st.param.b64 	[func_retval0+0], %rd3;
	ret;
}
                                        // -- End function
	// .globl	_ZN2cl4sycl6detail14multi_ptr_baseI5PointLNS0_6access13address_spaceE1EEC2E__ns1PU3AS1S3_ // -- Begin function _ZN2cl4sycl6detail14multi_ptr_baseI5PointLNS0_6access13address_spaceE1EEC2E__ns1PU3AS1S3_
.func _ZN2cl4sycl6detail14multi_ptr_baseI5PointLNS0_6access13address_spaceE1EEC2E__ns1PU3AS1S3_(
	.param .b64 _ZN2cl4sycl6detail14multi_ptr_baseI5PointLNS0_6access13address_spaceE1EEC2E__ns1PU3AS1S3__param_0,
	.param .b64 _ZN2cl4sycl6detail14multi_ptr_baseI5PointLNS0_6access13address_spaceE1EEC2E__ns1PU3AS1S3__param_1
)                                       // @_ZN2cl4sycl6detail14multi_ptr_baseI5PointLNS0_6access13address_spaceE1EEC2E__ns1PU3AS1S3_
{
	.local .align 8 .b8 	__local_depot25[16];
	.reg .b64 	%SP;
	.reg .b64 	%SPL;
	.reg .b64 	%rd<5>;

// %bb.0:
	mov.u64 	%SPL, __local_depot25;
	cvta.local.u64 	%SP, %SPL;
	ld.param.u64 	%rd2, [_ZN2cl4sycl6detail14multi_ptr_baseI5PointLNS0_6access13address_spaceE1EEC2E__ns1PU3AS1S3__param_1];
	ld.param.u64 	%rd1, [_ZN2cl4sycl6detail14multi_ptr_baseI5PointLNS0_6access13address_spaceE1EEC2E__ns1PU3AS1S3__param_0];
	st.u64 	[%SP+0], %rd1;
	st.u64 	[%SP+8], %rd2;
	ld.u64 	%rd3, [%SP+0];
	ld.u64 	%rd4, [%SP+8];
	st.u64 	[%rd3], %rd4;
	ret;
}
                                        // -- End function
	// .globl	_ZNK2cl4sycl6detail14multi_ptr_baseI5PointLNS0_6access13address_spaceE1EE20get_pointer_internalE__ns1v // -- Begin function _ZNK2cl4sycl6detail14multi_ptr_baseI5PointLNS0_6access13address_spaceE1EE20get_pointer_internalE__ns1v
.func  (.param .b64 func_retval0) _ZNK2cl4sycl6detail14multi_ptr_baseI5PointLNS0_6access13address_spaceE1EE20get_pointer_internalE__ns1v(
	.param .b64 _ZNK2cl4sycl6detail14multi_ptr_baseI5PointLNS0_6access13address_spaceE1EE20get_pointer_internalE__ns1v_param_0
)                                       // @_ZNK2cl4sycl6detail14multi_ptr_baseI5PointLNS0_6access13address_spaceE1EE20get_pointer_internalE__ns1v
{
	.local .align 8 .b8 	__local_depot26[8];
	.reg .b64 	%SP;
	.reg .b64 	%SPL;
	.reg .b64 	%rd<5>;

// %bb.0:
	mov.u64 	%SPL, __local_depot26;
	cvta.local.u64 	%SP, %SPL;
	ld.param.u64 	%rd1, [_ZNK2cl4sycl6detail14multi_ptr_baseI5PointLNS0_6access13address_spaceE1EE20get_pointer_internalE__ns1v_param_0];
	st.u64 	[%SP+0], %rd1;
	ld.u64 	%rd2, [%SP+0];
	ld.u64 	%rd3, [%rd2];
	{ // callseq 87, 0
	.reg .b32 temp_param_reg;
	.param .b64 param0;
	st.param.b64 	[param0+0], %rd3;
	.param .b64 retval0;
	call.uni (retval0), 
	_ZN2cl4sycl6detail25get_pointer_internal_typeI5PointLNS0_6access13address_spaceE1EEE__ns1PU3AS1S3_S7_, 
	(
	param0
	);
	ld.param.b64 	%rd4, [retval0+0];
	} // callseq 87
	st.param.b64 	[func_retval0+0], %rd4;
	ret;
}
                                        // -- End function
	// .globl	_ZN2cl4sycl12subscript_opILi1EbLi2ELNS0_6access4modeE1ELNS2_6targetE1ELNS2_11placeholderE0EEC2E__ns1RKNS0_6detail15accessor_commonIbLi2ELS3_1ELS4_1ELS5_0EEENS7_11index_arrayE // -- Begin function _ZN2cl4sycl12subscript_opILi1EbLi2ELNS0_6access4modeE1ELNS2_6targetE1ELNS2_11placeholderE0EEC2E__ns1RKNS0_6detail15accessor_commonIbLi2ELS3_1ELS4_1ELS5_0EEENS7_11index_arrayE
.func _ZN2cl4sycl12subscript_opILi1EbLi2ELNS0_6access4modeE1ELNS2_6targetE1ELNS2_11placeholderE0EEC2E__ns1RKNS0_6detail15accessor_commonIbLi2ELS3_1ELS4_1ELS5_0EEENS7_11index_arrayE(
	.param .b64 _ZN2cl4sycl12subscript_opILi1EbLi2ELNS0_6access4modeE1ELNS2_6targetE1ELNS2_11placeholderE0EEC2E__ns1RKNS0_6detail15accessor_commonIbLi2ELS3_1ELS4_1ELS5_0EEENS7_11index_arrayE_param_0,
	.param .b64 _ZN2cl4sycl12subscript_opILi1EbLi2ELNS0_6access4modeE1ELNS2_6targetE1ELNS2_11placeholderE0EEC2E__ns1RKNS0_6detail15accessor_commonIbLi2ELS3_1ELS4_1ELS5_0EEENS7_11index_arrayE_param_1,
	.param .align 8 .b8 _ZN2cl4sycl12subscript_opILi1EbLi2ELNS0_6access4modeE1ELNS2_6targetE1ELNS2_11placeholderE0EEC2E__ns1RKNS0_6detail15accessor_commonIbLi2ELS3_1ELS4_1ELS5_0EEENS7_11index_arrayE_param_2[24]
)                                       // @_ZN2cl4sycl12subscript_opILi1EbLi2ELNS0_6access4modeE1ELNS2_6targetE1ELNS2_11placeholderE0EEC2E__ns1RKNS0_6detail15accessor_commonIbLi2ELS3_1ELS4_1ELS5_0EEENS7_11index_arrayE
{
	.local .align 8 .b8 	__local_depot27[40];
	.reg .b64 	%SP;
	.reg .b64 	%SPL;
	.reg .b64 	%rd<12>;

// %bb.0:
	mov.u64 	%SPL, __local_depot27;
	cvta.local.u64 	%SP, %SPL;
	mov.b64 	%rd3, _ZN2cl4sycl12subscript_opILi1EbLi2ELNS0_6access4modeE1ELNS2_6targetE1ELNS2_11placeholderE0EEC2E__ns1RKNS0_6detail15accessor_commonIbLi2ELS3_1ELS4_1ELS5_0EEENS7_11index_arrayE_param_2;
	ld.param.u64 	%rd2, [_ZN2cl4sycl12subscript_opILi1EbLi2ELNS0_6access4modeE1ELNS2_6targetE1ELNS2_11placeholderE0EEC2E__ns1RKNS0_6detail15accessor_commonIbLi2ELS3_1ELS4_1ELS5_0EEENS7_11index_arrayE_param_1];
	ld.param.u64 	%rd1, [_ZN2cl4sycl12subscript_opILi1EbLi2ELNS0_6access4modeE1ELNS2_6targetE1ELNS2_11placeholderE0EEC2E__ns1RKNS0_6detail15accessor_commonIbLi2ELS3_1ELS4_1ELS5_0EEENS7_11index_arrayE_param_0];
	ld.param.u64 	%rd4, [_ZN2cl4sycl12subscript_opILi1EbLi2ELNS0_6access4modeE1ELNS2_6targetE1ELNS2_11placeholderE0EEC2E__ns1RKNS0_6detail15accessor_commonIbLi2ELS3_1ELS4_1ELS5_0EEENS7_11index_arrayE_param_2];
	ld.param.u64 	%rd5, [_ZN2cl4sycl12subscript_opILi1EbLi2ELNS0_6access4modeE1ELNS2_6targetE1ELNS2_11placeholderE0EEC2E__ns1RKNS0_6detail15accessor_commonIbLi2ELS3_1ELS4_1ELS5_0EEENS7_11index_arrayE_param_2+8];
	ld.param.u64 	%rd6, [_ZN2cl4sycl12subscript_opILi1EbLi2ELNS0_6access4modeE1ELNS2_6targetE1ELNS2_11placeholderE0EEC2E__ns1RKNS0_6detail15accessor_commonIbLi2ELS3_1ELS4_1ELS5_0EEENS7_11index_arrayE_param_2+16];
	st.u64 	[%SP+16], %rd6;
	st.u64 	[%SP+8], %rd5;
	st.u64 	[%SP+0], %rd4;
	st.u64 	[%SP+24], %rd1;
	st.u64 	[%SP+32], %rd2;
	ld.u64 	%rd7, [%SP+24];
	ld.u64 	%rd8, [%SP+32];
	st.u64 	[%rd7], %rd8;
	add.s64 	%rd9, %rd7, 8;
	add.u64 	%rd10, %SP, 0;
	mov.u64 	%rd11, 24;
	{ // callseq 88, 0
	.reg .b32 temp_param_reg;
	.param .b64 param0;
	st.param.b64 	[param0+0], %rd9;
	.param .b64 param1;
	st.param.b64 	[param1+0], %rd10;
	.param .b64 param2;
	st.param.b64 	[param2+0], %rd11;
	call.uni 
	_ZN2cl4sycl6memcpyIccyEE__ns1vPcPKcy, 
	(
	param0, 
	param1, 
	param2
	);
	} // callseq 88
	ret;
}
                                        // -- End function
	// .globl	_ZNK2cl4sycl6detail15accessor_commonIbLi2ELNS0_6access4modeE1ELNS3_6targetE1ELNS3_11placeholderE0EEixIbvEE__ns1RU3AS1bNS0_2idILi2EEE // -- Begin function _ZNK2cl4sycl6detail15accessor_commonIbLi2ELNS0_6access4modeE1ELNS3_6targetE1ELNS3_11placeholderE0EEixIbvEE__ns1RU3AS1bNS0_2idILi2EEE
.func  (.param .b64 func_retval0) _ZNK2cl4sycl6detail15accessor_commonIbLi2ELNS0_6access4modeE1ELNS3_6targetE1ELNS3_11placeholderE0EEixIbvEE__ns1RU3AS1bNS0_2idILi2EEE(
	.param .b64 _ZNK2cl4sycl6detail15accessor_commonIbLi2ELNS0_6access4modeE1ELNS3_6targetE1ELNS3_11placeholderE0EEixIbvEE__ns1RU3AS1bNS0_2idILi2EEE_param_0,
	.param .align 8 .b8 _ZNK2cl4sycl6detail15accessor_commonIbLi2ELNS0_6access4modeE1ELNS3_6targetE1ELNS3_11placeholderE0EEixIbvEE__ns1RU3AS1bNS0_2idILi2EEE_param_1[24]
)                                       // @_ZNK2cl4sycl6detail15accessor_commonIbLi2ELNS0_6access4modeE1ELNS3_6targetE1ELNS3_11placeholderE0EEixIbvEE__ns1RU3AS1bNS0_2idILi2EEE
{
	.local .align 8 .b8 	__local_depot28[40];
	.reg .b64 	%SP;
	.reg .b64 	%SPL;
	.reg .b32 	%r<4>;
	.reg .b64 	%rd<25>;

// %bb.0:
	mov.u64 	%SPL, __local_depot28;
	cvta.local.u64 	%SP, %SPL;
	mov.b64 	%rd2, _ZNK2cl4sycl6detail15accessor_commonIbLi2ELNS0_6access4modeE1ELNS3_6targetE1ELNS3_11placeholderE0EEixIbvEE__ns1RU3AS1bNS0_2idILi2EEE_param_1;
	ld.param.u64 	%rd1, [_ZNK2cl4sycl6detail15accessor_commonIbLi2ELNS0_6access4modeE1ELNS3_6targetE1ELNS3_11placeholderE0EEixIbvEE__ns1RU3AS1bNS0_2idILi2EEE_param_0];
	ld.param.u64 	%rd3, [_ZNK2cl4sycl6detail15accessor_commonIbLi2ELNS0_6access4modeE1ELNS3_6targetE1ELNS3_11placeholderE0EEixIbvEE__ns1RU3AS1bNS0_2idILi2EEE_param_1];
	ld.param.u64 	%rd4, [_ZNK2cl4sycl6detail15accessor_commonIbLi2ELNS0_6access4modeE1ELNS3_6targetE1ELNS3_11placeholderE0EEixIbvEE__ns1RU3AS1bNS0_2idILi2EEE_param_1+8];
	ld.param.u64 	%rd5, [_ZNK2cl4sycl6detail15accessor_commonIbLi2ELNS0_6access4modeE1ELNS3_6targetE1ELNS3_11placeholderE0EEixIbvEE__ns1RU3AS1bNS0_2idILi2EEE_param_1+16];
	st.u64 	[%SP+16], %rd5;
	st.u64 	[%SP+8], %rd4;
	st.u64 	[%SP+0], %rd3;
	st.u64 	[%SP+24], %rd1;
	ld.u64 	%rd6, [%SP+24];
	add.u64 	%rd7, %SP, 0;
	mov.u32 	%r1, 0;
	{ // callseq 89, 0
	.reg .b32 temp_param_reg;
	.param .b64 param0;
	st.param.b64 	[param0+0], %rd7;
	.param .b32 param1;
	st.param.b32 	[param1+0], %r1;
	.param .b64 retval0;
	call.uni (retval0), 
	_ZN2cl4sycl6detail16index_array_baseixE__ns1j, 
	(
	param0, 
	param1
	);
	ld.param.b64 	%rd8, [retval0+0];
	} // callseq 89
	ld.u64 	%rd9, [%rd8];
	mov.u32 	%r2, 1;
	{ // callseq 90, 0
	.reg .b32 temp_param_reg;
	.param .b64 param0;
	st.param.b64 	[param0+0], %rd7;
	.param .b32 param1;
	st.param.b32 	[param1+0], %r2;
	.param .b64 retval0;
	call.uni (retval0), 
	_ZN2cl4sycl6detail16index_array_baseixE__ns1j, 
	(
	param0, 
	param1
	);
	ld.param.b64 	%rd10, [retval0+0];
	} // callseq 90
	ld.u64 	%rd11, [%rd10];
	mov.u32 	%r3, 2;
	{ // callseq 91, 0
	.reg .b32 temp_param_reg;
	.param .b64 param0;
	st.param.b64 	[param0+0], %rd7;
	.param .b32 param1;
	st.param.b32 	[param1+0], %r3;
	.param .b64 retval0;
	call.uni (retval0), 
	_ZN2cl4sycl6detail16index_array_baseixE__ns1j, 
	(
	param0, 
	param1
	);
	ld.param.b64 	%rd12, [retval0+0];
	} // callseq 91
	ld.u64 	%rd13, [%rd12];
	add.s64 	%rd14, %rd6, 40;
	mov.u64 	%rd15, 0;
	{ // callseq 92, 0
	.reg .b32 temp_param_reg;
	.param .b64 param0;
	st.param.b64 	[param0+0], %rd14;
	.param .b64 param1;
	st.param.b64 	[param1+0], %rd15;
	.param .b64 retval0;
	call.uni (retval0), 
	_ZNK2cl4sycl18device_index_arrayixE__ns1m, 
	(
	param0, 
	param1
	);
	ld.param.b64 	%rd16, [retval0+0];
	} // callseq 92
	mov.u64 	%rd17, 1;
	{ // callseq 93, 0
	.reg .b32 temp_param_reg;
	.param .b64 param0;
	st.param.b64 	[param0+0], %rd14;
	.param .b64 param1;
	st.param.b64 	[param1+0], %rd17;
	.param .b64 retval0;
	call.uni (retval0), 
	_ZNK2cl4sycl18device_index_arrayixE__ns1m, 
	(
	param0, 
	param1
	);
	ld.param.b64 	%rd18, [retval0+0];
	} // callseq 93
	mov.u64 	%rd19, 2;
	{ // callseq 94, 0
	.reg .b32 temp_param_reg;
	.param .b64 param0;
	st.param.b64 	[param0+0], %rd14;
	.param .b64 param1;
	st.param.b64 	[param1+0], %rd19;
	.param .b64 retval0;
	call.uni (retval0), 
	_ZNK2cl4sycl18device_index_arrayixE__ns1m, 
	(
	param0, 
	param1
	);
	ld.param.b64 	%rd20, [retval0+0];
	} // callseq 94
	{ // callseq 95, 0
	.reg .b32 temp_param_reg;
	.param .b64 param0;
	st.param.b64 	[param0+0], %rd9;
	.param .b64 param1;
	st.param.b64 	[param1+0], %rd11;
	.param .b64 param2;
	st.param.b64 	[param2+0], %rd13;
	.param .b64 param3;
	st.param.b64 	[param3+0], %rd16;
	.param .b64 param4;
	st.param.b64 	[param4+0], %rd18;
	.param .b64 param5;
	st.param.b64 	[param5+0], %rd20;
	.param .b64 retval0;
	call.uni (retval0), 
	_ZN2cl4sycl6detail32construct_linear_row_major_indexILm2EEE__ns1mmmmmmm, 
	(
	param0, 
	param1, 
	param2, 
	param3, 
	param4, 
	param5
	);
	ld.param.b64 	%rd21, [retval0+0];
	} // callseq 95
	st.u64 	[%SP+32], %rd21;
	{ // callseq 96, 0
	.reg .b32 temp_param_reg;
	.param .b64 param0;
	st.param.b64 	[param0+0], %rd6;
	.param .b64 retval0;
	call.uni (retval0), 
	_ZNK2cl4sycl6detail15accessor_commonIbLi2ELNS0_6access4modeE1ELNS3_6targetE1ELNS3_11placeholderE0EE14get_device_ptrE__ns1v, 
	(
	param0
	);
	ld.param.b64 	%rd22, [retval0+0];
	} // callseq 96
	ld.u64 	%rd23, [%SP+32];
	add.s64 	%rd24, %rd22, %rd23;
	st.param.b64 	[func_retval0+0], %rd24;
	ret;
}
                                        // -- End function
	// .globl	_ZN2cl4sycl2idILi2EEC2E__ns1RKNS0_6detail11index_arrayE // -- Begin function _ZN2cl4sycl2idILi2EEC2E__ns1RKNS0_6detail11index_arrayE
.func _ZN2cl4sycl2idILi2EEC2E__ns1RKNS0_6detail11index_arrayE(
	.param .b64 _ZN2cl4sycl2idILi2EEC2E__ns1RKNS0_6detail11index_arrayE_param_0,
	.param .b64 _ZN2cl4sycl2idILi2EEC2E__ns1RKNS0_6detail11index_arrayE_param_1
)                                       // @_ZN2cl4sycl2idILi2EEC2E__ns1RKNS0_6detail11index_arrayE
{
	.local .align 8 .b8 	__local_depot29[16];
	.reg .b64 	%SP;
	.reg .b64 	%SPL;
	.reg .b32 	%r<3>;
	.reg .b64 	%rd<8>;

// %bb.0:
	mov.u64 	%SPL, __local_depot29;
	cvta.local.u64 	%SP, %SPL;
	ld.param.u64 	%rd2, [_ZN2cl4sycl2idILi2EEC2E__ns1RKNS0_6detail11index_arrayE_param_1];
	ld.param.u64 	%rd1, [_ZN2cl4sycl2idILi2EEC2E__ns1RKNS0_6detail11index_arrayE_param_0];
	st.u64 	[%SP+0], %rd1;
	st.u64 	[%SP+8], %rd2;
	ld.u64 	%rd3, [%SP+0];
	ld.u64 	%rd4, [%SP+8];
	mov.u32 	%r1, 0;
	{ // callseq 97, 0
	.reg .b32 temp_param_reg;
	.param .b64 param0;
	st.param.b64 	[param0+0], %rd4;
	.param .b32 param1;
	st.param.b32 	[param1+0], %r1;
	.param .b64 retval0;
	call.uni (retval0), 
	_ZNK2cl4sycl6detail11index_arrayixE__ns1j, 
	(
	param0, 
	param1
	);
	ld.param.b64 	%rd5, [retval0+0];
	} // callseq 97
	ld.u64 	%rd6, [%SP+8];
	mov.u32 	%r2, 1;
	{ // callseq 98, 0
	.reg .b32 temp_param_reg;
	.param .b64 param0;
	st.param.b64 	[param0+0], %rd6;
	.param .b32 param1;
	st.param.b32 	[param1+0], %r2;
	.param .b64 retval0;
	call.uni (retval0), 
	_ZNK2cl4sycl6detail11index_arrayixE__ns1j, 
	(
	param0, 
	param1
	);
	ld.param.b64 	%rd7, [retval0+0];
	} // callseq 98
	{ // callseq 99, 0
	.reg .b32 temp_param_reg;
	.param .b64 param0;
	st.param.b64 	[param0+0], %rd3;
	.param .b64 param1;
	st.param.b64 	[param1+0], %rd5;
	.param .b64 param2;
	st.param.b64 	[param2+0], %rd7;
	call.uni 
	_ZN2cl4sycl2idILi2EEC2E__ns1mm, 
	(
	param0, 
	param1, 
	param2
	);
	} // callseq 99
	ret;
}
                                        // -- End function
	// .globl	_ZN2cl4sycl6detail16index_array_baseixE__ns1j // -- Begin function _ZN2cl4sycl6detail16index_array_baseixE__ns1j
.func  (.param .b64 func_retval0) _ZN2cl4sycl6detail16index_array_baseixE__ns1j(
	.param .b64 _ZN2cl4sycl6detail16index_array_baseixE__ns1j_param_0,
	.param .b32 _ZN2cl4sycl6detail16index_array_baseixE__ns1j_param_1
)                                       // @_ZN2cl4sycl6detail16index_array_baseixE__ns1j
{
	.local .align 8 .b8 	__local_depot30[16];
	.reg .b64 	%SP;
	.reg .b64 	%SPL;
	.reg .pred 	%p<2>;
	.reg .b32 	%r<4>;
	.reg .b64 	%rd<4>;

// %bb.0:
	mov.u64 	%SPL, __local_depot30;
	cvta.local.u64 	%SP, %SPL;
	ld.param.u32 	%r1, [_ZN2cl4sycl6detail16index_array_baseixE__ns1j_param_1];
	ld.param.u64 	%rd2, [_ZN2cl4sycl6detail16index_array_baseixE__ns1j_param_0];
	st.u64 	[%SP+0], %rd2;
	st.u32 	[%SP+8], %r1;
	ld.u64 	%rd1, [%SP+0];
	ld.u32 	%r2, [%SP+8];
	setp.lt.u32 	%p1, %r2, 3;
	@%p1 bra 	LBB30_2;
	bra.uni 	LBB30_1;
LBB30_1:
	bra.uni 	LBB30_2;
LBB30_2:
	ld.u32 	%r3, [%SP+8];
	{ // callseq 100, 0
	.reg .b32 temp_param_reg;
	.param .b64 param0;
	st.param.b64 	[param0+0], %rd1;
	.param .b32 param1;
	st.param.b32 	[param1+0], %r3;
	.param .b64 retval0;
	call.uni (retval0), 
	_ZN2cl4sycl6detail11index_arrayixE__ns1j, 
	(
	param0, 
	param1
	);
	ld.param.b64 	%rd3, [retval0+0];
	} // callseq 100
	st.param.b64 	[func_retval0+0], %rd3;
	ret;
}
                                        // -- End function
	// .globl	_ZNK2cl4sycl18device_index_arrayixE__ns1m // -- Begin function _ZNK2cl4sycl18device_index_arrayixE__ns1m
.func  (.param .b64 func_retval0) _ZNK2cl4sycl18device_index_arrayixE__ns1m(
	.param .b64 _ZNK2cl4sycl18device_index_arrayixE__ns1m_param_0,
	.param .b64 _ZNK2cl4sycl18device_index_arrayixE__ns1m_param_1
)                                       // @_ZNK2cl4sycl18device_index_arrayixE__ns1m
{
	.local .align 8 .b8 	__local_depot31[16];
	.reg .b64 	%SP;
	.reg .b64 	%SPL;
	.reg .b64 	%rd<8>;

// %bb.0:
	mov.u64 	%SPL, __local_depot31;
	cvta.local.u64 	%SP, %SPL;
	ld.param.u64 	%rd2, [_ZNK2cl4sycl18device_index_arrayixE__ns1m_param_1];
	ld.param.u64 	%rd1, [_ZNK2cl4sycl18device_index_arrayixE__ns1m_param_0];
	st.u64 	[%SP+0], %rd1;
	st.u64 	[%SP+8], %rd2;
	ld.u64 	%rd3, [%SP+0];
	ld.u64 	%rd4, [%SP+8];
	shl.b64 	%rd5, %rd4, 2;
	add.s64 	%rd6, %rd3, %rd5;
	ld.s32 	%rd7, [%rd6];
	st.param.b64 	[func_retval0+0], %rd7;
	ret;
}
                                        // -- End function
	// .globl	_ZNK2cl4sycl6detail15accessor_commonIbLi2ELNS0_6access4modeE1ELNS3_6targetE1ELNS3_11placeholderE0EE14get_device_ptrE__ns1v // -- Begin function _ZNK2cl4sycl6detail15accessor_commonIbLi2ELNS0_6access4modeE1ELNS3_6targetE1ELNS3_11placeholderE0EE14get_device_ptrE__ns1v
.func  (.param .b64 func_retval0) _ZNK2cl4sycl6detail15accessor_commonIbLi2ELNS0_6access4modeE1ELNS3_6targetE1ELNS3_11placeholderE0EE14get_device_ptrE__ns1v(
	.param .b64 _ZNK2cl4sycl6detail15accessor_commonIbLi2ELNS0_6access4modeE1ELNS3_6targetE1ELNS3_11placeholderE0EE14get_device_ptrE__ns1v_param_0
)                                       // @_ZNK2cl4sycl6detail15accessor_commonIbLi2ELNS0_6access4modeE1ELNS3_6targetE1ELNS3_11placeholderE0EE14get_device_ptrE__ns1v
{
	.local .align 8 .b8 	__local_depot32[8];
	.reg .b64 	%SP;
	.reg .b64 	%SPL;
	.reg .b64 	%rd<4>;

// %bb.0:
	mov.u64 	%SPL, __local_depot32;
	cvta.local.u64 	%SP, %SPL;
	ld.param.u64 	%rd1, [_ZNK2cl4sycl6detail15accessor_commonIbLi2ELNS0_6access4modeE1ELNS3_6targetE1ELNS3_11placeholderE0EE14get_device_ptrE__ns1v_param_0];
	st.u64 	[%SP+0], %rd1;
	ld.u64 	%rd2, [%SP+0];
	{ // callseq 101, 0
	.reg .b32 temp_param_reg;
	.param .b64 param0;
	st.param.b64 	[param0+0], %rd2;
	.param .b64 retval0;
	call.uni (retval0), 
	_ZNK2cl4sycl10device_argIbLi2ELNS0_6access4modeE1ELNS2_6targetE1ELNS2_11placeholderE0EE7get_ptrE__ns1v, 
	(
	param0
	);
	ld.param.b64 	%rd3, [retval0+0];
	} // callseq 101
	st.param.b64 	[func_retval0+0], %rd3;
	ret;
}
                                        // -- End function
	// .globl	_ZNK2cl4sycl10device_argIbLi2ELNS0_6access4modeE1ELNS2_6targetE1ELNS2_11placeholderE0EE7get_ptrE__ns1v // -- Begin function _ZNK2cl4sycl10device_argIbLi2ELNS0_6access4modeE1ELNS2_6targetE1ELNS2_11placeholderE0EE7get_ptrE__ns1v
.func  (.param .b64 func_retval0) _ZNK2cl4sycl10device_argIbLi2ELNS0_6access4modeE1ELNS2_6targetE1ELNS2_11placeholderE0EE7get_ptrE__ns1v(
	.param .b64 _ZNK2cl4sycl10device_argIbLi2ELNS0_6access4modeE1ELNS2_6targetE1ELNS2_11placeholderE0EE7get_ptrE__ns1v_param_0
)                                       // @_ZNK2cl4sycl10device_argIbLi2ELNS0_6access4modeE1ELNS2_6targetE1ELNS2_11placeholderE0EE7get_ptrE__ns1v
{
	.local .align 8 .b8 	__local_depot33[16];
	.reg .b64 	%SP;
	.reg .b64 	%SPL;
	.reg .b64 	%rd<6>;

// %bb.0:
	mov.u64 	%SPL, __local_depot33;
	cvta.local.u64 	%SP, %SPL;
	ld.param.u64 	%rd1, [_ZNK2cl4sycl10device_argIbLi2ELNS0_6access4modeE1ELNS2_6targetE1ELNS2_11placeholderE0EE7get_ptrE__ns1v_param_0];
	st.u64 	[%SP+0], %rd1;
	ld.u64 	%rd2, [%SP+0];
	ld.u64 	%rd3, [%rd2];
	add.u64 	%rd4, %SP, 8;
	{ // callseq 102, 0
	.reg .b32 temp_param_reg;
	.param .b64 param0;
	st.param.b64 	[param0+0], %rd4;
	.param .b64 param1;
	st.param.b64 	[param1+0], %rd3;
	call.uni 
	_ZN2cl4sycl9multi_ptrIbLNS0_6access13address_spaceE1EEC2E__ns1PU3AS1b, 
	(
	param0, 
	param1
	);
	} // callseq 102
	{ // callseq 103, 0
	.reg .b32 temp_param_reg;
	.param .b64 param0;
	st.param.b64 	[param0+0], %rd4;
	.param .b64 retval0;
	call.uni (retval0), 
	_ZNK2cl4sycl6detail14multi_ptr_baseIbLNS0_6access13address_spaceE1EEcvPbE__ns1v, 
	(
	param0
	);
	ld.param.b64 	%rd5, [retval0+0];
	} // callseq 103
	st.param.b64 	[func_retval0+0], %rd5;
	ret;
}
                                        // -- End function
	// .globl	_ZN2cl4sycl9multi_ptrIbLNS0_6access13address_spaceE1EEC2E__ns1PU3AS1b // -- Begin function _ZN2cl4sycl9multi_ptrIbLNS0_6access13address_spaceE1EEC2E__ns1PU3AS1b
.func _ZN2cl4sycl9multi_ptrIbLNS0_6access13address_spaceE1EEC2E__ns1PU3AS1b(
	.param .b64 _ZN2cl4sycl9multi_ptrIbLNS0_6access13address_spaceE1EEC2E__ns1PU3AS1b_param_0,
	.param .b64 _ZN2cl4sycl9multi_ptrIbLNS0_6access13address_spaceE1EEC2E__ns1PU3AS1b_param_1
)                                       // @_ZN2cl4sycl9multi_ptrIbLNS0_6access13address_spaceE1EEC2E__ns1PU3AS1b
{
	.local .align 8 .b8 	__local_depot34[16];
	.reg .b64 	%SP;
	.reg .b64 	%SPL;
	.reg .b64 	%rd<5>;

// %bb.0:
	mov.u64 	%SPL, __local_depot34;
	cvta.local.u64 	%SP, %SPL;
	ld.param.u64 	%rd2, [_ZN2cl4sycl9multi_ptrIbLNS0_6access13address_spaceE1EEC2E__ns1PU3AS1b_param_1];
	ld.param.u64 	%rd1, [_ZN2cl4sycl9multi_ptrIbLNS0_6access13address_spaceE1EEC2E__ns1PU3AS1b_param_0];
	st.u64 	[%SP+0], %rd1;
	st.u64 	[%SP+8], %rd2;
	ld.u64 	%rd3, [%SP+0];
	ld.u64 	%rd4, [%SP+8];
	{ // callseq 104, 0
	.reg .b32 temp_param_reg;
	.param .b64 param0;
	st.param.b64 	[param0+0], %rd3;
	.param .b64 param1;
	st.param.b64 	[param1+0], %rd4;
	call.uni 
	_ZN2cl4sycl6detail14multi_ptr_baseIbLNS0_6access13address_spaceE1EEC2E__ns1PU3AS1b, 
	(
	param0, 
	param1
	);
	} // callseq 104
	ret;
}
                                        // -- End function
	// .globl	_ZNK2cl4sycl6detail14multi_ptr_baseIbLNS0_6access13address_spaceE1EEcvPbE__ns1v // -- Begin function _ZNK2cl4sycl6detail14multi_ptr_baseIbLNS0_6access13address_spaceE1EEcvPbE__ns1v
.func  (.param .b64 func_retval0) _ZNK2cl4sycl6detail14multi_ptr_baseIbLNS0_6access13address_spaceE1EEcvPbE__ns1v(
	.param .b64 _ZNK2cl4sycl6detail14multi_ptr_baseIbLNS0_6access13address_spaceE1EEcvPbE__ns1v_param_0
)                                       // @_ZNK2cl4sycl6detail14multi_ptr_baseIbLNS0_6access13address_spaceE1EEcvPbE__ns1v
{
	.local .align 8 .b8 	__local_depot35[8];
	.reg .b64 	%SP;
	.reg .b64 	%SPL;
	.reg .b64 	%rd<4>;

// %bb.0:
	mov.u64 	%SPL, __local_depot35;
	cvta.local.u64 	%SP, %SPL;
	ld.param.u64 	%rd1, [_ZNK2cl4sycl6detail14multi_ptr_baseIbLNS0_6access13address_spaceE1EEcvPbE__ns1v_param_0];
	st.u64 	[%SP+0], %rd1;
	ld.u64 	%rd2, [%SP+0];
	{ // callseq 105, 0
	.reg .b32 temp_param_reg;
	.param .b64 param0;
	st.param.b64 	[param0+0], %rd2;
	.param .b64 retval0;
	call.uni (retval0), 
	_ZNK2cl4sycl6detail14multi_ptr_baseIbLNS0_6access13address_spaceE1EE20get_pointer_internalE__ns1v, 
	(
	param0
	);
	ld.param.b64 	%rd3, [retval0+0];
	} // callseq 105
	st.param.b64 	[func_retval0+0], %rd3;
	ret;
}
                                        // -- End function
	// .globl	_ZN2cl4sycl6detail14multi_ptr_baseIbLNS0_6access13address_spaceE1EEC2E__ns1PU3AS1b // -- Begin function _ZN2cl4sycl6detail14multi_ptr_baseIbLNS0_6access13address_spaceE1EEC2E__ns1PU3AS1b
.func _ZN2cl4sycl6detail14multi_ptr_baseIbLNS0_6access13address_spaceE1EEC2E__ns1PU3AS1b(
	.param .b64 _ZN2cl4sycl6detail14multi_ptr_baseIbLNS0_6access13address_spaceE1EEC2E__ns1PU3AS1b_param_0,
	.param .b64 _ZN2cl4sycl6detail14multi_ptr_baseIbLNS0_6access13address_spaceE1EEC2E__ns1PU3AS1b_param_1
)                                       // @_ZN2cl4sycl6detail14multi_ptr_baseIbLNS0_6access13address_spaceE1EEC2E__ns1PU3AS1b
{
	.local .align 8 .b8 	__local_depot36[16];
	.reg .b64 	%SP;
	.reg .b64 	%SPL;
	.reg .b64 	%rd<5>;

// %bb.0:
	mov.u64 	%SPL, __local_depot36;
	cvta.local.u64 	%SP, %SPL;
	ld.param.u64 	%rd2, [_ZN2cl4sycl6detail14multi_ptr_baseIbLNS0_6access13address_spaceE1EEC2E__ns1PU3AS1b_param_1];
	ld.param.u64 	%rd1, [_ZN2cl4sycl6detail14multi_ptr_baseIbLNS0_6access13address_spaceE1EEC2E__ns1PU3AS1b_param_0];
	st.u64 	[%SP+0], %rd1;
	st.u64 	[%SP+8], %rd2;
	ld.u64 	%rd3, [%SP+0];
	ld.u64 	%rd4, [%SP+8];
	st.u64 	[%rd3], %rd4;
	ret;
}
                                        // -- End function
	// .globl	_ZNK2cl4sycl6detail14multi_ptr_baseIbLNS0_6access13address_spaceE1EE20get_pointer_internalE__ns1v // -- Begin function _ZNK2cl4sycl6detail14multi_ptr_baseIbLNS0_6access13address_spaceE1EE20get_pointer_internalE__ns1v
.func  (.param .b64 func_retval0) _ZNK2cl4sycl6detail14multi_ptr_baseIbLNS0_6access13address_spaceE1EE20get_pointer_internalE__ns1v(
	.param .b64 _ZNK2cl4sycl6detail14multi_ptr_baseIbLNS0_6access13address_spaceE1EE20get_pointer_internalE__ns1v_param_0
)                                       // @_ZNK2cl4sycl6detail14multi_ptr_baseIbLNS0_6access13address_spaceE1EE20get_pointer_internalE__ns1v
{
	.local .align 8 .b8 	__local_depot37[8];
	.reg .b64 	%SP;
	.reg .b64 	%SPL;
	.reg .b64 	%rd<5>;

// %bb.0:
	mov.u64 	%SPL, __local_depot37;
	cvta.local.u64 	%SP, %SPL;
	ld.param.u64 	%rd1, [_ZNK2cl4sycl6detail14multi_ptr_baseIbLNS0_6access13address_spaceE1EE20get_pointer_internalE__ns1v_param_0];
	st.u64 	[%SP+0], %rd1;
	ld.u64 	%rd2, [%SP+0];
	ld.u64 	%rd3, [%rd2];
	{ // callseq 106, 0
	.reg .b32 temp_param_reg;
	.param .b64 param0;
	st.param.b64 	[param0+0], %rd3;
	.param .b64 retval0;
	call.uni (retval0), 
	_ZN2cl4sycl6detail25get_pointer_internal_typeIbLNS0_6access13address_spaceE1EEE__ns1PU3AS1bS6_, 
	(
	param0
	);
	ld.param.b64 	%rd4, [retval0+0];
	} // callseq 106
	st.param.b64 	[func_retval0+0], %rd4;
	ret;
}
                                        // -- End function
	// .globl	_ZN2cl4sycl2idILi2EEC2E__ns1mm // -- Begin function _ZN2cl4sycl2idILi2EEC2E__ns1mm
.func _ZN2cl4sycl2idILi2EEC2E__ns1mm(
	.param .b64 _ZN2cl4sycl2idILi2EEC2E__ns1mm_param_0,
	.param .b64 _ZN2cl4sycl2idILi2EEC2E__ns1mm_param_1,
	.param .b64 _ZN2cl4sycl2idILi2EEC2E__ns1mm_param_2
)                                       // @_ZN2cl4sycl2idILi2EEC2E__ns1mm
{
	.local .align 8 .b8 	__local_depot38[24];
	.reg .b64 	%SP;
	.reg .b64 	%SPL;
	.reg .b64 	%rd<8>;

// %bb.0:
	mov.u64 	%SPL, __local_depot38;
	cvta.local.u64 	%SP, %SPL;
	ld.param.u64 	%rd3, [_ZN2cl4sycl2idILi2EEC2E__ns1mm_param_2];
	ld.param.u64 	%rd2, [_ZN2cl4sycl2idILi2EEC2E__ns1mm_param_1];
	ld.param.u64 	%rd1, [_ZN2cl4sycl2idILi2EEC2E__ns1mm_param_0];
	st.u64 	[%SP+0], %rd1;
	st.u64 	[%SP+8], %rd2;
	st.u64 	[%SP+16], %rd3;
	ld.u64 	%rd4, [%SP+0];
	ld.u64 	%rd5, [%SP+8];
	ld.u64 	%rd6, [%SP+16];
	mov.u64 	%rd7, 0;
	{ // callseq 107, 0
	.reg .b32 temp_param_reg;
	.param .b64 param0;
	st.param.b64 	[param0+0], %rd4;
	.param .b64 param1;
	st.param.b64 	[param1+0], %rd5;
	.param .b64 param2;
	st.param.b64 	[param2+0], %rd6;
	.param .b64 param3;
	st.param.b64 	[param3+0], %rd7;
	call.uni 
	_ZN2cl4sycl6detail21index_array_operatorsILi2ENS0_2idEEC2E__ns1mmm, 
	(
	param0, 
	param1, 
	param2, 
	param3
	);
	} // callseq 107
	ret;
}
                                        // -- End function
	// .globl	_ZN2cl4sycl6detail21index_array_operatorsILi2ENS0_2idEEC2E__ns1mmm // -- Begin function _ZN2cl4sycl6detail21index_array_operatorsILi2ENS0_2idEEC2E__ns1mmm
.func _ZN2cl4sycl6detail21index_array_operatorsILi2ENS0_2idEEC2E__ns1mmm(
	.param .b64 _ZN2cl4sycl6detail21index_array_operatorsILi2ENS0_2idEEC2E__ns1mmm_param_0,
	.param .b64 _ZN2cl4sycl6detail21index_array_operatorsILi2ENS0_2idEEC2E__ns1mmm_param_1,
	.param .b64 _ZN2cl4sycl6detail21index_array_operatorsILi2ENS0_2idEEC2E__ns1mmm_param_2,
	.param .b64 _ZN2cl4sycl6detail21index_array_operatorsILi2ENS0_2idEEC2E__ns1mmm_param_3
)                                       // @_ZN2cl4sycl6detail21index_array_operatorsILi2ENS0_2idEEC2E__ns1mmm
{
	.local .align 8 .b8 	__local_depot39[32];
	.reg .b64 	%SP;
	.reg .b64 	%SPL;
	.reg .b64 	%rd<9>;

// %bb.0:
	mov.u64 	%SPL, __local_depot39;
	cvta.local.u64 	%SP, %SPL;
	ld.param.u64 	%rd4, [_ZN2cl4sycl6detail21index_array_operatorsILi2ENS0_2idEEC2E__ns1mmm_param_3];
	ld.param.u64 	%rd3, [_ZN2cl4sycl6detail21index_array_operatorsILi2ENS0_2idEEC2E__ns1mmm_param_2];
	ld.param.u64 	%rd2, [_ZN2cl4sycl6detail21index_array_operatorsILi2ENS0_2idEEC2E__ns1mmm_param_1];
	ld.param.u64 	%rd1, [_ZN2cl4sycl6detail21index_array_operatorsILi2ENS0_2idEEC2E__ns1mmm_param_0];
	st.u64 	[%SP+0], %rd1;
	st.u64 	[%SP+8], %rd2;
	st.u64 	[%SP+16], %rd3;
	st.u64 	[%SP+24], %rd4;
	ld.u64 	%rd5, [%SP+0];
	ld.u64 	%rd6, [%SP+8];
	ld.u64 	%rd7, [%SP+16];
	ld.u64 	%rd8, [%SP+24];
	{ // callseq 108, 0
	.reg .b32 temp_param_reg;
	.param .b64 param0;
	st.param.b64 	[param0+0], %rd5;
	.param .b64 param1;
	st.param.b64 	[param1+0], %rd6;
	.param .b64 param2;
	st.param.b64 	[param2+0], %rd7;
	.param .b64 param3;
	st.param.b64 	[param3+0], %rd8;
	call.uni 
	_ZN2cl4sycl6detail16index_array_baseC2E__ns1mmm, 
	(
	param0, 
	param1, 
	param2, 
	param3
	);
	} // callseq 108
	ret;
}
                                        // -- End function
	// .globl	_ZN2cl4sycl6detail16index_array_baseC2E__ns1mmm // -- Begin function _ZN2cl4sycl6detail16index_array_baseC2E__ns1mmm
.func _ZN2cl4sycl6detail16index_array_baseC2E__ns1mmm(
	.param .b64 _ZN2cl4sycl6detail16index_array_baseC2E__ns1mmm_param_0,
	.param .b64 _ZN2cl4sycl6detail16index_array_baseC2E__ns1mmm_param_1,
	.param .b64 _ZN2cl4sycl6detail16index_array_baseC2E__ns1mmm_param_2,
	.param .b64 _ZN2cl4sycl6detail16index_array_baseC2E__ns1mmm_param_3
)                                       // @_ZN2cl4sycl6detail16index_array_baseC2E__ns1mmm
{
	.local .align 8 .b8 	__local_depot40[32];
	.reg .b64 	%SP;
	.reg .b64 	%SPL;
	.reg .b32 	%r<4>;
	.reg .b64 	%rd<12>;

// %bb.0:
	mov.u64 	%SPL, __local_depot40;
	cvta.local.u64 	%SP, %SPL;
	ld.param.u64 	%rd4, [_ZN2cl4sycl6detail16index_array_baseC2E__ns1mmm_param_3];
	ld.param.u64 	%rd3, [_ZN2cl4sycl6detail16index_array_baseC2E__ns1mmm_param_2];
	ld.param.u64 	%rd2, [_ZN2cl4sycl6detail16index_array_baseC2E__ns1mmm_param_1];
	ld.param.u64 	%rd1, [_ZN2cl4sycl6detail16index_array_baseC2E__ns1mmm_param_0];
	st.u64 	[%SP+0], %rd1;
	st.u64 	[%SP+8], %rd2;
	st.u64 	[%SP+16], %rd3;
	st.u64 	[%SP+24], %rd4;
	ld.u64 	%rd5, [%SP+0];
	ld.u64 	%rd6, [%SP+8];
	mov.u32 	%r1, 0;
	{ // callseq 109, 0
	.reg .b32 temp_param_reg;
	.param .b64 param0;
	st.param.b64 	[param0+0], %rd5;
	.param .b32 param1;
	st.param.b32 	[param1+0], %r1;
	.param .b64 retval0;
	call.uni (retval0), 
	_ZN2cl4sycl6detail11index_arrayixE__ns1j, 
	(
	param0, 
	param1
	);
	ld.param.b64 	%rd7, [retval0+0];
	} // callseq 109
	st.u64 	[%rd7], %rd6;
	ld.u64 	%rd8, [%SP+16];
	mov.u32 	%r2, 1;
	{ // callseq 110, 0
	.reg .b32 temp_param_reg;
	.param .b64 param0;
	st.param.b64 	[param0+0], %rd5;
	.param .b32 param1;
	st.param.b32 	[param1+0], %r2;
	.param .b64 retval0;
	call.uni (retval0), 
	_ZN2cl4sycl6detail11index_arrayixE__ns1j, 
	(
	param0, 
	param1
	);
	ld.param.b64 	%rd9, [retval0+0];
	} // callseq 110
	st.u64 	[%rd9], %rd8;
	ld.u64 	%rd10, [%SP+24];
	mov.u32 	%r3, 2;
	{ // callseq 111, 0
	.reg .b32 temp_param_reg;
	.param .b64 param0;
	st.param.b64 	[param0+0], %rd5;
	.param .b32 param1;
	st.param.b32 	[param1+0], %r3;
	.param .b64 retval0;
	call.uni (retval0), 
	_ZN2cl4sycl6detail11index_arrayixE__ns1j, 
	(
	param0, 
	param1
	);
	ld.param.b64 	%rd11, [retval0+0];
	} // callseq 111
	st.u64 	[%rd11], %rd10;
	ret;
}
                                        // -- End function
	// .globl	_ZNK2cl4sycl6detail9item_base6get_idE__ns1i // -- Begin function _ZNK2cl4sycl6detail9item_base6get_idE__ns1i
.func  (.param .b64 func_retval0) _ZNK2cl4sycl6detail9item_base6get_idE__ns1i(
	.param .b64 _ZNK2cl4sycl6detail9item_base6get_idE__ns1i_param_0,
	.param .b32 _ZNK2cl4sycl6detail9item_base6get_idE__ns1i_param_1
)                                       // @_ZNK2cl4sycl6detail9item_base6get_idE__ns1i
{
	.local .align 8 .b8 	__local_depot41[16];
	.reg .b64 	%SP;
	.reg .b64 	%SPL;
	.reg .b32 	%r<3>;
	.reg .b64 	%rd<4>;

// %bb.0:
	mov.u64 	%SPL, __local_depot41;
	cvta.local.u64 	%SP, %SPL;
	ld.param.u32 	%r1, [_ZNK2cl4sycl6detail9item_base6get_idE__ns1i_param_1];
	ld.param.u64 	%rd1, [_ZNK2cl4sycl6detail9item_base6get_idE__ns1i_param_0];
	st.u64 	[%SP+0], %rd1;
	st.u32 	[%SP+8], %r1;
	ld.u64 	%rd2, [%SP+0];
	ld.u32 	%r2, [%SP+8];
	{ // callseq 112, 0
	.reg .b32 temp_param_reg;
	.param .b64 param0;
	st.param.b64 	[param0+0], %rd2;
	.param .b32 param1;
	st.param.b32 	[param1+0], %r2;
	.param .b64 retval0;
	call.uni (retval0), 
	_ZNK2cl4sycl6detail11index_arrayixE__ns1j, 
	(
	param0, 
	param1
	);
	ld.param.b64 	%rd3, [retval0+0];
	} // callseq 112
	st.param.b64 	[func_retval0+0], %rd3;
	ret;
}
                                        // -- End function
	// .globl	_ZN2cl4sycl6detail21index_array_operatorsILi1ENS0_2idEEC2E__ns1mmm // -- Begin function _ZN2cl4sycl6detail21index_array_operatorsILi1ENS0_2idEEC2E__ns1mmm
.func _ZN2cl4sycl6detail21index_array_operatorsILi1ENS0_2idEEC2E__ns1mmm(
	.param .b64 _ZN2cl4sycl6detail21index_array_operatorsILi1ENS0_2idEEC2E__ns1mmm_param_0,
	.param .b64 _ZN2cl4sycl6detail21index_array_operatorsILi1ENS0_2idEEC2E__ns1mmm_param_1,
	.param .b64 _ZN2cl4sycl6detail21index_array_operatorsILi1ENS0_2idEEC2E__ns1mmm_param_2,
	.param .b64 _ZN2cl4sycl6detail21index_array_operatorsILi1ENS0_2idEEC2E__ns1mmm_param_3
)                                       // @_ZN2cl4sycl6detail21index_array_operatorsILi1ENS0_2idEEC2E__ns1mmm
{
	.local .align 8 .b8 	__local_depot42[32];
	.reg .b64 	%SP;
	.reg .b64 	%SPL;
	.reg .b64 	%rd<9>;

// %bb.0:
	mov.u64 	%SPL, __local_depot42;
	cvta.local.u64 	%SP, %SPL;
	ld.param.u64 	%rd4, [_ZN2cl4sycl6detail21index_array_operatorsILi1ENS0_2idEEC2E__ns1mmm_param_3];
	ld.param.u64 	%rd3, [_ZN2cl4sycl6detail21index_array_operatorsILi1ENS0_2idEEC2E__ns1mmm_param_2];
	ld.param.u64 	%rd2, [_ZN2cl4sycl6detail21index_array_operatorsILi1ENS0_2idEEC2E__ns1mmm_param_1];
	ld.param.u64 	%rd1, [_ZN2cl4sycl6detail21index_array_operatorsILi1ENS0_2idEEC2E__ns1mmm_param_0];
	st.u64 	[%SP+0], %rd1;
	st.u64 	[%SP+8], %rd2;
	st.u64 	[%SP+16], %rd3;
	st.u64 	[%SP+24], %rd4;
	ld.u64 	%rd5, [%SP+0];
	ld.u64 	%rd6, [%SP+8];
	ld.u64 	%rd7, [%SP+16];
	ld.u64 	%rd8, [%SP+24];
	{ // callseq 113, 0
	.reg .b32 temp_param_reg;
	.param .b64 param0;
	st.param.b64 	[param0+0], %rd5;
	.param .b64 param1;
	st.param.b64 	[param1+0], %rd6;
	.param .b64 param2;
	st.param.b64 	[param2+0], %rd7;
	.param .b64 param3;
	st.param.b64 	[param3+0], %rd8;
	call.uni 
	_ZN2cl4sycl6detail16index_array_baseC2E__ns1mmm, 
	(
	param0, 
	param1, 
	param2, 
	param3
	);
	} // callseq 113
	ret;
}
                                        // -- End function
	// .globl	_ZNK2cl4sycl6detail15accessor_commonIbLi2ELNS0_6access4modeE0ELNS3_6targetE1ELNS3_11placeholderE0EEixIbvEE__ns1NS0_12subscript_opILi1EbLi2ELS4_0ELS5_1ELS6_0EEEm // -- Begin function _ZNK2cl4sycl6detail15accessor_commonIbLi2ELNS0_6access4modeE0ELNS3_6targetE1ELNS3_11placeholderE0EEixIbvEE__ns1NS0_12subscript_opILi1EbLi2ELS4_0ELS5_1ELS6_0EEEm
.func  (.param .align 8 .b8 func_retval0[32]) _ZNK2cl4sycl6detail15accessor_commonIbLi2ELNS0_6access4modeE0ELNS3_6targetE1ELNS3_11placeholderE0EEixIbvEE__ns1NS0_12subscript_opILi1EbLi2ELS4_0ELS5_1ELS6_0EEEm(
	.param .b64 _ZNK2cl4sycl6detail15accessor_commonIbLi2ELNS0_6access4modeE0ELNS3_6targetE1ELNS3_11placeholderE0EEixIbvEE__ns1NS0_12subscript_opILi1EbLi2ELS4_0ELS5_1ELS6_0EEEm_param_0,
	.param .b64 _ZNK2cl4sycl6detail15accessor_commonIbLi2ELNS0_6access4modeE0ELNS3_6targetE1ELNS3_11placeholderE0EEixIbvEE__ns1NS0_12subscript_opILi1EbLi2ELS4_0ELS5_1ELS6_0EEEm_param_1
)                                       // @_ZNK2cl4sycl6detail15accessor_commonIbLi2ELNS0_6access4modeE0ELNS3_6targetE1ELNS3_11placeholderE0EEixIbvEE__ns1NS0_12subscript_opILi1EbLi2ELS4_0ELS5_1ELS6_0EEEm
{
	.local .align 8 .b8 	__local_depot43[96];
	.reg .b64 	%SP;
	.reg .b64 	%SPL;
	.reg .b64 	%rd<17>;

// %bb.0:
	mov.u64 	%SPL, __local_depot43;
	cvta.local.u64 	%SP, %SPL;
	ld.param.u64 	%rd2, [_ZNK2cl4sycl6detail15accessor_commonIbLi2ELNS0_6access4modeE0ELNS3_6targetE1ELNS3_11placeholderE0EEixIbvEE__ns1NS0_12subscript_opILi1EbLi2ELS4_0ELS5_1ELS6_0EEEm_param_1];
	ld.param.u64 	%rd1, [_ZNK2cl4sycl6detail15accessor_commonIbLi2ELNS0_6access4modeE0ELNS3_6targetE1ELNS3_11placeholderE0EEixIbvEE__ns1NS0_12subscript_opILi1EbLi2ELS4_0ELS5_1ELS6_0EEEm_param_0];
	st.u64 	[%SP+32], %rd1;
	st.u64 	[%SP+40], %rd2;
	ld.u64 	%rd3, [%SP+32];
	ld.u64 	%rd4, [%SP+40];
	add.u64 	%rd5, %SP, 48;
	mov.u64 	%rd6, 0;
	{ // callseq 114, 0
	.reg .b32 temp_param_reg;
	.param .b64 param0;
	st.param.b64 	[param0+0], %rd5;
	.param .b64 param1;
	st.param.b64 	[param1+0], %rd4;
	.param .b64 param2;
	st.param.b64 	[param2+0], %rd6;
	.param .b64 param3;
	st.param.b64 	[param3+0], %rd6;
	call.uni 
	_ZN2cl4sycl6detail11index_arrayC2E__ns1mmm, 
	(
	param0, 
	param1, 
	param2, 
	param3
	);
	} // callseq 114
	add.u64 	%rd7, %SP, 72;
	mov.u64 	%rd8, 24;
	{ // callseq 115, 0
	.reg .b32 temp_param_reg;
	.param .b64 param0;
	st.param.b64 	[param0+0], %rd7;
	.param .b64 param1;
	st.param.b64 	[param1+0], %rd5;
	.param .b64 param2;
	st.param.b64 	[param2+0], %rd8;
	call.uni 
	_ZN2cl4sycl6memcpyIccyEE__ns1vPcPKcy, 
	(
	param0, 
	param1, 
	param2
	);
	} // callseq 115
	ld.u64 	%rd9, [%SP+72];
	ld.u64 	%rd10, [%SP+80];
	ld.u64 	%rd11, [%SP+88];
	add.u64 	%rd12, %SP, 0;
	{ // callseq 116, 0
	.reg .b32 temp_param_reg;
	.param .b64 param0;
	st.param.b64 	[param0+0], %rd12;
	.param .b64 param1;
	st.param.b64 	[param1+0], %rd3;
	.param .align 8 .b8 param2[24];
	st.param.b64 	[param2+0], %rd9;
	st.param.b64 	[param2+8], %rd10;
	st.param.b64 	[param2+16], %rd11;
	call.uni 
	_ZN2cl4sycl12subscript_opILi1EbLi2ELNS0_6access4modeE0ELNS2_6targetE1ELNS2_11placeholderE0EEC2E__ns1RKNS0_6detail15accessor_commonIbLi2ELS3_0ELS4_1ELS5_0EEENS7_11index_arrayE, 
	(
	param0, 
	param1, 
	param2
	);
	} // callseq 116
	ld.u64 	%rd13, [%SP+24];
	ld.u64 	%rd14, [%SP+16];
	ld.u64 	%rd15, [%SP+8];
	ld.u64 	%rd16, [%SP+0];
	st.param.b64 	[func_retval0+0], %rd16;
	st.param.b64 	[func_retval0+8], %rd15;
	st.param.b64 	[func_retval0+16], %rd14;
	st.param.b64 	[func_retval0+24], %rd13;
	ret;
}
                                        // -- End function
	// .globl	_ZN2cl4sycl12subscript_opILi1EbLi2ELNS0_6access4modeE0ELNS2_6targetE1ELNS2_11placeholderE0EEixIbvEE__ns1bm // -- Begin function _ZN2cl4sycl12subscript_opILi1EbLi2ELNS0_6access4modeE0ELNS2_6targetE1ELNS2_11placeholderE0EEixIbvEE__ns1bm
.func  (.param .b32 func_retval0) _ZN2cl4sycl12subscript_opILi1EbLi2ELNS0_6access4modeE0ELNS2_6targetE1ELNS2_11placeholderE0EEixIbvEE__ns1bm(
	.param .b64 _ZN2cl4sycl12subscript_opILi1EbLi2ELNS0_6access4modeE0ELNS2_6targetE1ELNS2_11placeholderE0EEixIbvEE__ns1bm_param_0,
	.param .b64 _ZN2cl4sycl12subscript_opILi1EbLi2ELNS0_6access4modeE0ELNS2_6targetE1ELNS2_11placeholderE0EEixIbvEE__ns1bm_param_1
)                                       // @_ZN2cl4sycl12subscript_opILi1EbLi2ELNS0_6access4modeE0ELNS2_6targetE1ELNS2_11placeholderE0EEixIbvEE__ns1bm
{
	.local .align 8 .b8 	__local_depot44[40];
	.reg .b64 	%SP;
	.reg .b64 	%SPL;
	.reg .b32 	%r<4>;
	.reg .b64 	%rd<12>;

// %bb.0:
	mov.u64 	%SPL, __local_depot44;
	cvta.local.u64 	%SP, %SPL;
	ld.param.u64 	%rd2, [_ZN2cl4sycl12subscript_opILi1EbLi2ELNS0_6access4modeE0ELNS2_6targetE1ELNS2_11placeholderE0EEixIbvEE__ns1bm_param_1];
	ld.param.u64 	%rd1, [_ZN2cl4sycl12subscript_opILi1EbLi2ELNS0_6access4modeE0ELNS2_6targetE1ELNS2_11placeholderE0EEixIbvEE__ns1bm_param_0];
	st.u64 	[%SP+0], %rd1;
	st.u64 	[%SP+8], %rd2;
	ld.u64 	%rd3, [%SP+0];
	ld.u64 	%rd4, [%SP+8];
	add.s64 	%rd5, %rd3, 8;
	mov.u32 	%r1, 1;
	{ // callseq 117, 0
	.reg .b32 temp_param_reg;
	.param .b64 param0;
	st.param.b64 	[param0+0], %rd5;
	.param .b32 param1;
	st.param.b32 	[param1+0], %r1;
	.param .b64 retval0;
	call.uni (retval0), 
	_ZN2cl4sycl6detail11index_arrayixE__ns1j, 
	(
	param0, 
	param1
	);
	ld.param.b64 	%rd6, [retval0+0];
	} // callseq 117
	st.u64 	[%rd6], %rd4;
	ld.u64 	%rd7, [%rd3];
	add.u64 	%rd8, %SP, 16;
	{ // callseq 118, 0
	.reg .b32 temp_param_reg;
	.param .b64 param0;
	st.param.b64 	[param0+0], %rd8;
	.param .b64 param1;
	st.param.b64 	[param1+0], %rd5;
	call.uni 
	_ZN2cl4sycl2idILi2EEC2E__ns1RKNS0_6detail11index_arrayE, 
	(
	param0, 
	param1
	);
	} // callseq 118
	ld.u64 	%rd9, [%SP+16];
	ld.u64 	%rd10, [%SP+24];
	ld.u64 	%rd11, [%SP+32];
	{ // callseq 119, 0
	.reg .b32 temp_param_reg;
	.param .b64 param0;
	st.param.b64 	[param0+0], %rd7;
	.param .align 8 .b8 param1[24];
	st.param.b64 	[param1+0], %rd9;
	st.param.b64 	[param1+8], %rd10;
	st.param.b64 	[param1+16], %rd11;
	.param .b32 retval0;
	call.uni (retval0), 
	_ZNK2cl4sycl6detail15accessor_commonIbLi2ELNS0_6access4modeE0ELNS3_6targetE1ELNS3_11placeholderE0EEixIbvEE__ns1bNS0_2idILi2EEE, 
	(
	param0, 
	param1
	);
	ld.param.b32 	%r2, [retval0+0];
	} // callseq 119
	and.b32  	%r3, %r2, 1;
	st.param.b32 	[func_retval0+0], %r3;
	ret;
}
                                        // -- End function
	// .globl	_ZNK2cl4sycl6detail15accessor_commonIiLi1ELNS0_6access4modeE0ELNS3_6targetE1ELNS3_11placeholderE0EEixIivEE__ns1im // -- Begin function _ZNK2cl4sycl6detail15accessor_commonIiLi1ELNS0_6access4modeE0ELNS3_6targetE1ELNS3_11placeholderE0EEixIivEE__ns1im
.func  (.param .b32 func_retval0) _ZNK2cl4sycl6detail15accessor_commonIiLi1ELNS0_6access4modeE0ELNS3_6targetE1ELNS3_11placeholderE0EEixIivEE__ns1im(
	.param .b64 _ZNK2cl4sycl6detail15accessor_commonIiLi1ELNS0_6access4modeE0ELNS3_6targetE1ELNS3_11placeholderE0EEixIivEE__ns1im_param_0,
	.param .b64 _ZNK2cl4sycl6detail15accessor_commonIiLi1ELNS0_6access4modeE0ELNS3_6targetE1ELNS3_11placeholderE0EEixIivEE__ns1im_param_1
)                                       // @_ZNK2cl4sycl6detail15accessor_commonIiLi1ELNS0_6access4modeE0ELNS3_6targetE1ELNS3_11placeholderE0EEixIivEE__ns1im
{
	.local .align 8 .b8 	__local_depot45[16];
	.reg .b64 	%SP;
	.reg .b64 	%SPL;
	.reg .b32 	%r<2>;
	.reg .b64 	%rd<8>;

// %bb.0:
	mov.u64 	%SPL, __local_depot45;
	cvta.local.u64 	%SP, %SPL;
	ld.param.u64 	%rd2, [_ZNK2cl4sycl6detail15accessor_commonIiLi1ELNS0_6access4modeE0ELNS3_6targetE1ELNS3_11placeholderE0EEixIivEE__ns1im_param_1];
	ld.param.u64 	%rd1, [_ZNK2cl4sycl6detail15accessor_commonIiLi1ELNS0_6access4modeE0ELNS3_6targetE1ELNS3_11placeholderE0EEixIivEE__ns1im_param_0];
	st.u64 	[%SP+0], %rd1;
	st.u64 	[%SP+8], %rd2;
	ld.u64 	%rd3, [%SP+0];
	{ // callseq 120, 0
	.reg .b32 temp_param_reg;
	.param .b64 param0;
	st.param.b64 	[param0+0], %rd3;
	.param .b64 retval0;
	call.uni (retval0), 
	_ZNK2cl4sycl6detail15accessor_commonIiLi1ELNS0_6access4modeE0ELNS3_6targetE1ELNS3_11placeholderE0EE14get_device_ptrE__ns1v, 
	(
	param0
	);
	ld.param.b64 	%rd4, [retval0+0];
	} // callseq 120
	ld.u64 	%rd5, [%SP+8];
	shl.b64 	%rd6, %rd5, 2;
	add.s64 	%rd7, %rd4, %rd6;
	ld.global.u32 	%r1, [%rd7];
	st.param.b32 	[func_retval0+0], %r1;
	ret;
}
                                        // -- End function
	// .globl	_ZNK2cl4sycl6detail15accessor_commonIbLi1ELNS0_6access4modeE2ELNS3_6targetE1ELNS3_11placeholderE0EEixIbvEE__ns1RU3AS1bm // -- Begin function _ZNK2cl4sycl6detail15accessor_commonIbLi1ELNS0_6access4modeE2ELNS3_6targetE1ELNS3_11placeholderE0EEixIbvEE__ns1RU3AS1bm
.func  (.param .b64 func_retval0) _ZNK2cl4sycl6detail15accessor_commonIbLi1ELNS0_6access4modeE2ELNS3_6targetE1ELNS3_11placeholderE0EEixIbvEE__ns1RU3AS1bm(
	.param .b64 _ZNK2cl4sycl6detail15accessor_commonIbLi1ELNS0_6access4modeE2ELNS3_6targetE1ELNS3_11placeholderE0EEixIbvEE__ns1RU3AS1bm_param_0,
	.param .b64 _ZNK2cl4sycl6detail15accessor_commonIbLi1ELNS0_6access4modeE2ELNS3_6targetE1ELNS3_11placeholderE0EEixIbvEE__ns1RU3AS1bm_param_1
)                                       // @_ZNK2cl4sycl6detail15accessor_commonIbLi1ELNS0_6access4modeE2ELNS3_6targetE1ELNS3_11placeholderE0EEixIbvEE__ns1RU3AS1bm
{
	.local .align 8 .b8 	__local_depot46[16];
	.reg .b64 	%SP;
	.reg .b64 	%SPL;
	.reg .b64 	%rd<7>;

// %bb.0:
	mov.u64 	%SPL, __local_depot46;
	cvta.local.u64 	%SP, %SPL;
	ld.param.u64 	%rd2, [_ZNK2cl4sycl6detail15accessor_commonIbLi1ELNS0_6access4modeE2ELNS3_6targetE1ELNS3_11placeholderE0EEixIbvEE__ns1RU3AS1bm_param_1];
	ld.param.u64 	%rd1, [_ZNK2cl4sycl6detail15accessor_commonIbLi1ELNS0_6access4modeE2ELNS3_6targetE1ELNS3_11placeholderE0EEixIbvEE__ns1RU3AS1bm_param_0];
	st.u64 	[%SP+0], %rd1;
	st.u64 	[%SP+8], %rd2;
	ld.u64 	%rd3, [%SP+0];
	{ // callseq 121, 0
	.reg .b32 temp_param_reg;
	.param .b64 param0;
	st.param.b64 	[param0+0], %rd3;
	.param .b64 retval0;
	call.uni (retval0), 
	_ZNK2cl4sycl6detail15accessor_commonIbLi1ELNS0_6access4modeE2ELNS3_6targetE1ELNS3_11placeholderE0EE14get_device_ptrE__ns1v, 
	(
	param0
	);
	ld.param.b64 	%rd4, [retval0+0];
	} // callseq 121
	ld.u64 	%rd5, [%SP+8];
	add.s64 	%rd6, %rd4, %rd5;
	st.param.b64 	[func_retval0+0], %rd6;
	ret;
}
                                        // -- End function
	// .globl	_ZN2cl4sycl12subscript_opILi1EbLi2ELNS0_6access4modeE0ELNS2_6targetE1ELNS2_11placeholderE0EEC2E__ns1RKNS0_6detail15accessor_commonIbLi2ELS3_0ELS4_1ELS5_0EEENS7_11index_arrayE // -- Begin function _ZN2cl4sycl12subscript_opILi1EbLi2ELNS0_6access4modeE0ELNS2_6targetE1ELNS2_11placeholderE0EEC2E__ns1RKNS0_6detail15accessor_commonIbLi2ELS3_0ELS4_1ELS5_0EEENS7_11index_arrayE
.func _ZN2cl4sycl12subscript_opILi1EbLi2ELNS0_6access4modeE0ELNS2_6targetE1ELNS2_11placeholderE0EEC2E__ns1RKNS0_6detail15accessor_commonIbLi2ELS3_0ELS4_1ELS5_0EEENS7_11index_arrayE(
	.param .b64 _ZN2cl4sycl12subscript_opILi1EbLi2ELNS0_6access4modeE0ELNS2_6targetE1ELNS2_11placeholderE0EEC2E__ns1RKNS0_6detail15accessor_commonIbLi2ELS3_0ELS4_1ELS5_0EEENS7_11index_arrayE_param_0,
	.param .b64 _ZN2cl4sycl12subscript_opILi1EbLi2ELNS0_6access4modeE0ELNS2_6targetE1ELNS2_11placeholderE0EEC2E__ns1RKNS0_6detail15accessor_commonIbLi2ELS3_0ELS4_1ELS5_0EEENS7_11index_arrayE_param_1,
	.param .align 8 .b8 _ZN2cl4sycl12subscript_opILi1EbLi2ELNS0_6access4modeE0ELNS2_6targetE1ELNS2_11placeholderE0EEC2E__ns1RKNS0_6detail15accessor_commonIbLi2ELS3_0ELS4_1ELS5_0EEENS7_11index_arrayE_param_2[24]
)                                       // @_ZN2cl4sycl12subscript_opILi1EbLi2ELNS0_6access4modeE0ELNS2_6targetE1ELNS2_11placeholderE0EEC2E__ns1RKNS0_6detail15accessor_commonIbLi2ELS3_0ELS4_1ELS5_0EEENS7_11index_arrayE
{
	.local .align 8 .b8 	__local_depot47[40];
	.reg .b64 	%SP;
	.reg .b64 	%SPL;
	.reg .b64 	%rd<12>;

// %bb.0:
	mov.u64 	%SPL, __local_depot47;
	cvta.local.u64 	%SP, %SPL;
	mov.b64 	%rd3, _ZN2cl4sycl12subscript_opILi1EbLi2ELNS0_6access4modeE0ELNS2_6targetE1ELNS2_11placeholderE0EEC2E__ns1RKNS0_6detail15accessor_commonIbLi2ELS3_0ELS4_1ELS5_0EEENS7_11index_arrayE_param_2;
	ld.param.u64 	%rd2, [_ZN2cl4sycl12subscript_opILi1EbLi2ELNS0_6access4modeE0ELNS2_6targetE1ELNS2_11placeholderE0EEC2E__ns1RKNS0_6detail15accessor_commonIbLi2ELS3_0ELS4_1ELS5_0EEENS7_11index_arrayE_param_1];
	ld.param.u64 	%rd1, [_ZN2cl4sycl12subscript_opILi1EbLi2ELNS0_6access4modeE0ELNS2_6targetE1ELNS2_11placeholderE0EEC2E__ns1RKNS0_6detail15accessor_commonIbLi2ELS3_0ELS4_1ELS5_0EEENS7_11index_arrayE_param_0];
	ld.param.u64 	%rd4, [_ZN2cl4sycl12subscript_opILi1EbLi2ELNS0_6access4modeE0ELNS2_6targetE1ELNS2_11placeholderE0EEC2E__ns1RKNS0_6detail15accessor_commonIbLi2ELS3_0ELS4_1ELS5_0EEENS7_11index_arrayE_param_2];
	ld.param.u64 	%rd5, [_ZN2cl4sycl12subscript_opILi1EbLi2ELNS0_6access4modeE0ELNS2_6targetE1ELNS2_11placeholderE0EEC2E__ns1RKNS0_6detail15accessor_commonIbLi2ELS3_0ELS4_1ELS5_0EEENS7_11index_arrayE_param_2+8];
	ld.param.u64 	%rd6, [_ZN2cl4sycl12subscript_opILi1EbLi2ELNS0_6access4modeE0ELNS2_6targetE1ELNS2_11placeholderE0EEC2E__ns1RKNS0_6detail15accessor_commonIbLi2ELS3_0ELS4_1ELS5_0EEENS7_11index_arrayE_param_2+16];
	st.u64 	[%SP+16], %rd6;
	st.u64 	[%SP+8], %rd5;
	st.u64 	[%SP+0], %rd4;
	st.u64 	[%SP+24], %rd1;
	st.u64 	[%SP+32], %rd2;
	ld.u64 	%rd7, [%SP+24];
	ld.u64 	%rd8, [%SP+32];
	st.u64 	[%rd7], %rd8;
	add.s64 	%rd9, %rd7, 8;
	add.u64 	%rd10, %SP, 0;
	mov.u64 	%rd11, 24;
	{ // callseq 122, 0
	.reg .b32 temp_param_reg;
	.param .b64 param0;
	st.param.b64 	[param0+0], %rd9;
	.param .b64 param1;
	st.param.b64 	[param1+0], %rd10;
	.param .b64 param2;
	st.param.b64 	[param2+0], %rd11;
	call.uni 
	_ZN2cl4sycl6memcpyIccyEE__ns1vPcPKcy, 
	(
	param0, 
	param1, 
	param2
	);
	} // callseq 122
	ret;
}
                                        // -- End function
	// .globl	_ZNK2cl4sycl6detail15accessor_commonIbLi2ELNS0_6access4modeE0ELNS3_6targetE1ELNS3_11placeholderE0EEixIbvEE__ns1bNS0_2idILi2EEE // -- Begin function _ZNK2cl4sycl6detail15accessor_commonIbLi2ELNS0_6access4modeE0ELNS3_6targetE1ELNS3_11placeholderE0EEixIbvEE__ns1bNS0_2idILi2EEE
.func  (.param .b32 func_retval0) _ZNK2cl4sycl6detail15accessor_commonIbLi2ELNS0_6access4modeE0ELNS3_6targetE1ELNS3_11placeholderE0EEixIbvEE__ns1bNS0_2idILi2EEE(
	.param .b64 _ZNK2cl4sycl6detail15accessor_commonIbLi2ELNS0_6access4modeE0ELNS3_6targetE1ELNS3_11placeholderE0EEixIbvEE__ns1bNS0_2idILi2EEE_param_0,
	.param .align 8 .b8 _ZNK2cl4sycl6detail15accessor_commonIbLi2ELNS0_6access4modeE0ELNS3_6targetE1ELNS3_11placeholderE0EEixIbvEE__ns1bNS0_2idILi2EEE_param_1[24]
)                                       // @_ZNK2cl4sycl6detail15accessor_commonIbLi2ELNS0_6access4modeE0ELNS3_6targetE1ELNS3_11placeholderE0EEixIbvEE__ns1bNS0_2idILi2EEE
{
	.local .align 8 .b8 	__local_depot48[40];
	.reg .b64 	%SP;
	.reg .b64 	%SPL;
	.reg .b32 	%r<6>;
	.reg .b64 	%rd<25>;

// %bb.0:
	mov.u64 	%SPL, __local_depot48;
	cvta.local.u64 	%SP, %SPL;
	mov.b64 	%rd2, _ZNK2cl4sycl6detail15accessor_commonIbLi2ELNS0_6access4modeE0ELNS3_6targetE1ELNS3_11placeholderE0EEixIbvEE__ns1bNS0_2idILi2EEE_param_1;
	ld.param.u64 	%rd1, [_ZNK2cl4sycl6detail15accessor_commonIbLi2ELNS0_6access4modeE0ELNS3_6targetE1ELNS3_11placeholderE0EEixIbvEE__ns1bNS0_2idILi2EEE_param_0];
	ld.param.u64 	%rd3, [_ZNK2cl4sycl6detail15accessor_commonIbLi2ELNS0_6access4modeE0ELNS3_6targetE1ELNS3_11placeholderE0EEixIbvEE__ns1bNS0_2idILi2EEE_param_1];
	ld.param.u64 	%rd4, [_ZNK2cl4sycl6detail15accessor_commonIbLi2ELNS0_6access4modeE0ELNS3_6targetE1ELNS3_11placeholderE0EEixIbvEE__ns1bNS0_2idILi2EEE_param_1+8];
	ld.param.u64 	%rd5, [_ZNK2cl4sycl6detail15accessor_commonIbLi2ELNS0_6access4modeE0ELNS3_6targetE1ELNS3_11placeholderE0EEixIbvEE__ns1bNS0_2idILi2EEE_param_1+16];
	st.u64 	[%SP+16], %rd5;
	st.u64 	[%SP+8], %rd4;
	st.u64 	[%SP+0], %rd3;
	st.u64 	[%SP+24], %rd1;
	ld.u64 	%rd6, [%SP+24];
	add.u64 	%rd7, %SP, 0;
	mov.u32 	%r1, 0;
	{ // callseq 123, 0
	.reg .b32 temp_param_reg;
	.param .b64 param0;
	st.param.b64 	[param0+0], %rd7;
	.param .b32 param1;
	st.param.b32 	[param1+0], %r1;
	.param .b64 retval0;
	call.uni (retval0), 
	_ZN2cl4sycl6detail16index_array_baseixE__ns1j, 
	(
	param0, 
	param1
	);
	ld.param.b64 	%rd8, [retval0+0];
	} // callseq 123
	ld.u64 	%rd9, [%rd8];
	mov.u32 	%r2, 1;
	{ // callseq 124, 0
	.reg .b32 temp_param_reg;
	.param .b64 param0;
	st.param.b64 	[param0+0], %rd7;
	.param .b32 param1;
	st.param.b32 	[param1+0], %r2;
	.param .b64 retval0;
	call.uni (retval0), 
	_ZN2cl4sycl6detail16index_array_baseixE__ns1j, 
	(
	param0, 
	param1
	);
	ld.param.b64 	%rd10, [retval0+0];
	} // callseq 124
	ld.u64 	%rd11, [%rd10];
	mov.u32 	%r3, 2;
	{ // callseq 125, 0
	.reg .b32 temp_param_reg;
	.param .b64 param0;
	st.param.b64 	[param0+0], %rd7;
	.param .b32 param1;
	st.param.b32 	[param1+0], %r3;
	.param .b64 retval0;
	call.uni (retval0), 
	_ZN2cl4sycl6detail16index_array_baseixE__ns1j, 
	(
	param0, 
	param1
	);
	ld.param.b64 	%rd12, [retval0+0];
	} // callseq 125
	ld.u64 	%rd13, [%rd12];
	add.s64 	%rd14, %rd6, 40;
	mov.u64 	%rd15, 0;
	{ // callseq 126, 0
	.reg .b32 temp_param_reg;
	.param .b64 param0;
	st.param.b64 	[param0+0], %rd14;
	.param .b64 param1;
	st.param.b64 	[param1+0], %rd15;
	.param .b64 retval0;
	call.uni (retval0), 
	_ZNK2cl4sycl18device_index_arrayixE__ns1m, 
	(
	param0, 
	param1
	);
	ld.param.b64 	%rd16, [retval0+0];
	} // callseq 126
	mov.u64 	%rd17, 1;
	{ // callseq 127, 0
	.reg .b32 temp_param_reg;
	.param .b64 param0;
	st.param.b64 	[param0+0], %rd14;
	.param .b64 param1;
	st.param.b64 	[param1+0], %rd17;
	.param .b64 retval0;
	call.uni (retval0), 
	_ZNK2cl4sycl18device_index_arrayixE__ns1m, 
	(
	param0, 
	param1
	);
	ld.param.b64 	%rd18, [retval0+0];
	} // callseq 127
	mov.u64 	%rd19, 2;
	{ // callseq 128, 0
	.reg .b32 temp_param_reg;
	.param .b64 param0;
	st.param.b64 	[param0+0], %rd14;
	.param .b64 param1;
	st.param.b64 	[param1+0], %rd19;
	.param .b64 retval0;
	call.uni (retval0), 
	_ZNK2cl4sycl18device_index_arrayixE__ns1m, 
	(
	param0, 
	param1
	);
	ld.param.b64 	%rd20, [retval0+0];
	} // callseq 128
	{ // callseq 129, 0
	.reg .b32 temp_param_reg;
	.param .b64 param0;
	st.param.b64 	[param0+0], %rd9;
	.param .b64 param1;
	st.param.b64 	[param1+0], %rd11;
	.param .b64 param2;
	st.param.b64 	[param2+0], %rd13;
	.param .b64 param3;
	st.param.b64 	[param3+0], %rd16;
	.param .b64 param4;
	st.param.b64 	[param4+0], %rd18;
	.param .b64 param5;
	st.param.b64 	[param5+0], %rd20;
	.param .b64 retval0;
	call.uni (retval0), 
	_ZN2cl4sycl6detail32construct_linear_row_major_indexILm2EEE__ns1mmmmmmm, 
	(
	param0, 
	param1, 
	param2, 
	param3, 
	param4, 
	param5
	);
	ld.param.b64 	%rd21, [retval0+0];
	} // callseq 129
	st.u64 	[%SP+32], %rd21;
	{ // callseq 130, 0
	.reg .b32 temp_param_reg;
	.param .b64 param0;
	st.param.b64 	[param0+0], %rd6;
	.param .b64 retval0;
	call.uni (retval0), 
	_ZNK2cl4sycl6detail15accessor_commonIbLi2ELNS0_6access4modeE0ELNS3_6targetE1ELNS3_11placeholderE0EE14get_device_ptrE__ns1v, 
	(
	param0
	);
	ld.param.b64 	%rd22, [retval0+0];
	} // callseq 130
	ld.u64 	%rd23, [%SP+32];
	add.s64 	%rd24, %rd22, %rd23;
	ld.global.u8 	%r4, [%rd24];
	and.b32  	%r5, %r4, 1;
	st.param.b32 	[func_retval0+0], %r5;
	ret;
}
                                        // -- End function
	// .globl	_ZNK2cl4sycl6detail15accessor_commonIbLi2ELNS0_6access4modeE0ELNS3_6targetE1ELNS3_11placeholderE0EE14get_device_ptrE__ns1v // -- Begin function _ZNK2cl4sycl6detail15accessor_commonIbLi2ELNS0_6access4modeE0ELNS3_6targetE1ELNS3_11placeholderE0EE14get_device_ptrE__ns1v
.func  (.param .b64 func_retval0) _ZNK2cl4sycl6detail15accessor_commonIbLi2ELNS0_6access4modeE0ELNS3_6targetE1ELNS3_11placeholderE0EE14get_device_ptrE__ns1v(
	.param .b64 _ZNK2cl4sycl6detail15accessor_commonIbLi2ELNS0_6access4modeE0ELNS3_6targetE1ELNS3_11placeholderE0EE14get_device_ptrE__ns1v_param_0
)                                       // @_ZNK2cl4sycl6detail15accessor_commonIbLi2ELNS0_6access4modeE0ELNS3_6targetE1ELNS3_11placeholderE0EE14get_device_ptrE__ns1v
{
	.local .align 8 .b8 	__local_depot49[8];
	.reg .b64 	%SP;
	.reg .b64 	%SPL;
	.reg .b64 	%rd<4>;

// %bb.0:
	mov.u64 	%SPL, __local_depot49;
	cvta.local.u64 	%SP, %SPL;
	ld.param.u64 	%rd1, [_ZNK2cl4sycl6detail15accessor_commonIbLi2ELNS0_6access4modeE0ELNS3_6targetE1ELNS3_11placeholderE0EE14get_device_ptrE__ns1v_param_0];
	st.u64 	[%SP+0], %rd1;
	ld.u64 	%rd2, [%SP+0];
	{ // callseq 131, 0
	.reg .b32 temp_param_reg;
	.param .b64 param0;
	st.param.b64 	[param0+0], %rd2;
	.param .b64 retval0;
	call.uni (retval0), 
	_ZNK2cl4sycl10device_argIbLi2ELNS0_6access4modeE0ELNS2_6targetE1ELNS2_11placeholderE0EE7get_ptrE__ns1v, 
	(
	param0
	);
	ld.param.b64 	%rd3, [retval0+0];
	} // callseq 131
	st.param.b64 	[func_retval0+0], %rd3;
	ret;
}
                                        // -- End function
	// .globl	_ZNK2cl4sycl10device_argIbLi2ELNS0_6access4modeE0ELNS2_6targetE1ELNS2_11placeholderE0EE7get_ptrE__ns1v // -- Begin function _ZNK2cl4sycl10device_argIbLi2ELNS0_6access4modeE0ELNS2_6targetE1ELNS2_11placeholderE0EE7get_ptrE__ns1v
.func  (.param .b64 func_retval0) _ZNK2cl4sycl10device_argIbLi2ELNS0_6access4modeE0ELNS2_6targetE1ELNS2_11placeholderE0EE7get_ptrE__ns1v(
	.param .b64 _ZNK2cl4sycl10device_argIbLi2ELNS0_6access4modeE0ELNS2_6targetE1ELNS2_11placeholderE0EE7get_ptrE__ns1v_param_0
)                                       // @_ZNK2cl4sycl10device_argIbLi2ELNS0_6access4modeE0ELNS2_6targetE1ELNS2_11placeholderE0EE7get_ptrE__ns1v
{
	.local .align 8 .b8 	__local_depot50[16];
	.reg .b64 	%SP;
	.reg .b64 	%SPL;
	.reg .b64 	%rd<6>;

// %bb.0:
	mov.u64 	%SPL, __local_depot50;
	cvta.local.u64 	%SP, %SPL;
	ld.param.u64 	%rd1, [_ZNK2cl4sycl10device_argIbLi2ELNS0_6access4modeE0ELNS2_6targetE1ELNS2_11placeholderE0EE7get_ptrE__ns1v_param_0];
	st.u64 	[%SP+0], %rd1;
	ld.u64 	%rd2, [%SP+0];
	ld.u64 	%rd3, [%rd2];
	add.u64 	%rd4, %SP, 8;
	{ // callseq 132, 0
	.reg .b32 temp_param_reg;
	.param .b64 param0;
	st.param.b64 	[param0+0], %rd4;
	.param .b64 param1;
	st.param.b64 	[param1+0], %rd3;
	call.uni 
	_ZN2cl4sycl9multi_ptrIbLNS0_6access13address_spaceE1EEC2E__ns1PU3AS1b, 
	(
	param0, 
	param1
	);
	} // callseq 132
	{ // callseq 133, 0
	.reg .b32 temp_param_reg;
	.param .b64 param0;
	st.param.b64 	[param0+0], %rd4;
	.param .b64 retval0;
	call.uni (retval0), 
	_ZNK2cl4sycl6detail14multi_ptr_baseIbLNS0_6access13address_spaceE1EEcvPbE__ns1v, 
	(
	param0
	);
	ld.param.b64 	%rd5, [retval0+0];
	} // callseq 133
	st.param.b64 	[func_retval0+0], %rd5;
	ret;
}
                                        // -- End function
	// .globl	_ZNK2cl4sycl6detail15accessor_commonIiLi1ELNS0_6access4modeE0ELNS3_6targetE1ELNS3_11placeholderE0EE14get_device_ptrE__ns1v // -- Begin function _ZNK2cl4sycl6detail15accessor_commonIiLi1ELNS0_6access4modeE0ELNS3_6targetE1ELNS3_11placeholderE0EE14get_device_ptrE__ns1v
.func  (.param .b64 func_retval0) _ZNK2cl4sycl6detail15accessor_commonIiLi1ELNS0_6access4modeE0ELNS3_6targetE1ELNS3_11placeholderE0EE14get_device_ptrE__ns1v(
	.param .b64 _ZNK2cl4sycl6detail15accessor_commonIiLi1ELNS0_6access4modeE0ELNS3_6targetE1ELNS3_11placeholderE0EE14get_device_ptrE__ns1v_param_0
)                                       // @_ZNK2cl4sycl6detail15accessor_commonIiLi1ELNS0_6access4modeE0ELNS3_6targetE1ELNS3_11placeholderE0EE14get_device_ptrE__ns1v
{
	.local .align 8 .b8 	__local_depot51[8];
	.reg .b64 	%SP;
	.reg .b64 	%SPL;
	.reg .b64 	%rd<4>;

// %bb.0:
	mov.u64 	%SPL, __local_depot51;
	cvta.local.u64 	%SP, %SPL;
	ld.param.u64 	%rd1, [_ZNK2cl4sycl6detail15accessor_commonIiLi1ELNS0_6access4modeE0ELNS3_6targetE1ELNS3_11placeholderE0EE14get_device_ptrE__ns1v_param_0];
	st.u64 	[%SP+0], %rd1;
	ld.u64 	%rd2, [%SP+0];
	{ // callseq 134, 0
	.reg .b32 temp_param_reg;
	.param .b64 param0;
	st.param.b64 	[param0+0], %rd2;
	.param .b64 retval0;
	call.uni (retval0), 
	_ZNK2cl4sycl10device_argIiLi1ELNS0_6access4modeE0ELNS2_6targetE1ELNS2_11placeholderE0EE7get_ptrE__ns1v, 
	(
	param0
	);
	ld.param.b64 	%rd3, [retval0+0];
	} // callseq 134
	st.param.b64 	[func_retval0+0], %rd3;
	ret;
}
                                        // -- End function
	// .globl	_ZNK2cl4sycl10device_argIiLi1ELNS0_6access4modeE0ELNS2_6targetE1ELNS2_11placeholderE0EE7get_ptrE__ns1v // -- Begin function _ZNK2cl4sycl10device_argIiLi1ELNS0_6access4modeE0ELNS2_6targetE1ELNS2_11placeholderE0EE7get_ptrE__ns1v
.func  (.param .b64 func_retval0) _ZNK2cl4sycl10device_argIiLi1ELNS0_6access4modeE0ELNS2_6targetE1ELNS2_11placeholderE0EE7get_ptrE__ns1v(
	.param .b64 _ZNK2cl4sycl10device_argIiLi1ELNS0_6access4modeE0ELNS2_6targetE1ELNS2_11placeholderE0EE7get_ptrE__ns1v_param_0
)                                       // @_ZNK2cl4sycl10device_argIiLi1ELNS0_6access4modeE0ELNS2_6targetE1ELNS2_11placeholderE0EE7get_ptrE__ns1v
{
	.local .align 8 .b8 	__local_depot52[16];
	.reg .b64 	%SP;
	.reg .b64 	%SPL;
	.reg .b64 	%rd<6>;

// %bb.0:
	mov.u64 	%SPL, __local_depot52;
	cvta.local.u64 	%SP, %SPL;
	ld.param.u64 	%rd1, [_ZNK2cl4sycl10device_argIiLi1ELNS0_6access4modeE0ELNS2_6targetE1ELNS2_11placeholderE0EE7get_ptrE__ns1v_param_0];
	st.u64 	[%SP+0], %rd1;
	ld.u64 	%rd2, [%SP+0];
	ld.u64 	%rd3, [%rd2];
	add.u64 	%rd4, %SP, 8;
	{ // callseq 135, 0
	.reg .b32 temp_param_reg;
	.param .b64 param0;
	st.param.b64 	[param0+0], %rd4;
	.param .b64 param1;
	st.param.b64 	[param1+0], %rd3;
	call.uni 
	_ZN2cl4sycl9multi_ptrIiLNS0_6access13address_spaceE1EEC2E__ns1PU3AS1i, 
	(
	param0, 
	param1
	);
	} // callseq 135
	{ // callseq 136, 0
	.reg .b32 temp_param_reg;
	.param .b64 param0;
	st.param.b64 	[param0+0], %rd4;
	.param .b64 retval0;
	call.uni (retval0), 
	_ZNK2cl4sycl6detail14multi_ptr_baseIiLNS0_6access13address_spaceE1EEcvPiE__ns1v, 
	(
	param0
	);
	ld.param.b64 	%rd5, [retval0+0];
	} // callseq 136
	st.param.b64 	[func_retval0+0], %rd5;
	ret;
}
                                        // -- End function
	// .globl	_ZN2cl4sycl9multi_ptrIiLNS0_6access13address_spaceE1EEC2E__ns1PU3AS1i // -- Begin function _ZN2cl4sycl9multi_ptrIiLNS0_6access13address_spaceE1EEC2E__ns1PU3AS1i
.func _ZN2cl4sycl9multi_ptrIiLNS0_6access13address_spaceE1EEC2E__ns1PU3AS1i(
	.param .b64 _ZN2cl4sycl9multi_ptrIiLNS0_6access13address_spaceE1EEC2E__ns1PU3AS1i_param_0,
	.param .b64 _ZN2cl4sycl9multi_ptrIiLNS0_6access13address_spaceE1EEC2E__ns1PU3AS1i_param_1
)                                       // @_ZN2cl4sycl9multi_ptrIiLNS0_6access13address_spaceE1EEC2E__ns1PU3AS1i
{
	.local .align 8 .b8 	__local_depot53[16];
	.reg .b64 	%SP;
	.reg .b64 	%SPL;
	.reg .b64 	%rd<5>;

// %bb.0:
	mov.u64 	%SPL, __local_depot53;
	cvta.local.u64 	%SP, %SPL;
	ld.param.u64 	%rd2, [_ZN2cl4sycl9multi_ptrIiLNS0_6access13address_spaceE1EEC2E__ns1PU3AS1i_param_1];
	ld.param.u64 	%rd1, [_ZN2cl4sycl9multi_ptrIiLNS0_6access13address_spaceE1EEC2E__ns1PU3AS1i_param_0];
	st.u64 	[%SP+0], %rd1;
	st.u64 	[%SP+8], %rd2;
	ld.u64 	%rd3, [%SP+0];
	ld.u64 	%rd4, [%SP+8];
	{ // callseq 137, 0
	.reg .b32 temp_param_reg;
	.param .b64 param0;
	st.param.b64 	[param0+0], %rd3;
	.param .b64 param1;
	st.param.b64 	[param1+0], %rd4;
	call.uni 
	_ZN2cl4sycl6detail14multi_ptr_baseIiLNS0_6access13address_spaceE1EEC2E__ns1PU3AS1i, 
	(
	param0, 
	param1
	);
	} // callseq 137
	ret;
}
                                        // -- End function
	// .globl	_ZNK2cl4sycl6detail14multi_ptr_baseIiLNS0_6access13address_spaceE1EEcvPiE__ns1v // -- Begin function _ZNK2cl4sycl6detail14multi_ptr_baseIiLNS0_6access13address_spaceE1EEcvPiE__ns1v
.func  (.param .b64 func_retval0) _ZNK2cl4sycl6detail14multi_ptr_baseIiLNS0_6access13address_spaceE1EEcvPiE__ns1v(
	.param .b64 _ZNK2cl4sycl6detail14multi_ptr_baseIiLNS0_6access13address_spaceE1EEcvPiE__ns1v_param_0
)                                       // @_ZNK2cl4sycl6detail14multi_ptr_baseIiLNS0_6access13address_spaceE1EEcvPiE__ns1v
{
	.local .align 8 .b8 	__local_depot54[8];
	.reg .b64 	%SP;
	.reg .b64 	%SPL;
	.reg .b64 	%rd<4>;

// %bb.0:
	mov.u64 	%SPL, __local_depot54;
	cvta.local.u64 	%SP, %SPL;
	ld.param.u64 	%rd1, [_ZNK2cl4sycl6detail14multi_ptr_baseIiLNS0_6access13address_spaceE1EEcvPiE__ns1v_param_0];
	st.u64 	[%SP+0], %rd1;
	ld.u64 	%rd2, [%SP+0];
	{ // callseq 138, 0
	.reg .b32 temp_param_reg;
	.param .b64 param0;
	st.param.b64 	[param0+0], %rd2;
	.param .b64 retval0;
	call.uni (retval0), 
	_ZNK2cl4sycl6detail14multi_ptr_baseIiLNS0_6access13address_spaceE1EE20get_pointer_internalE__ns1v, 
	(
	param0
	);
	ld.param.b64 	%rd3, [retval0+0];
	} // callseq 138
	st.param.b64 	[func_retval0+0], %rd3;
	ret;
}
                                        // -- End function
	// .globl	_ZN2cl4sycl6detail14multi_ptr_baseIiLNS0_6access13address_spaceE1EEC2E__ns1PU3AS1i // -- Begin function _ZN2cl4sycl6detail14multi_ptr_baseIiLNS0_6access13address_spaceE1EEC2E__ns1PU3AS1i
.func _ZN2cl4sycl6detail14multi_ptr_baseIiLNS0_6access13address_spaceE1EEC2E__ns1PU3AS1i(
	.param .b64 _ZN2cl4sycl6detail14multi_ptr_baseIiLNS0_6access13address_spaceE1EEC2E__ns1PU3AS1i_param_0,
	.param .b64 _ZN2cl4sycl6detail14multi_ptr_baseIiLNS0_6access13address_spaceE1EEC2E__ns1PU3AS1i_param_1
)                                       // @_ZN2cl4sycl6detail14multi_ptr_baseIiLNS0_6access13address_spaceE1EEC2E__ns1PU3AS1i
{
	.local .align 8 .b8 	__local_depot55[16];
	.reg .b64 	%SP;
	.reg .b64 	%SPL;
	.reg .b64 	%rd<5>;

// %bb.0:
	mov.u64 	%SPL, __local_depot55;
	cvta.local.u64 	%SP, %SPL;
	ld.param.u64 	%rd2, [_ZN2cl4sycl6detail14multi_ptr_baseIiLNS0_6access13address_spaceE1EEC2E__ns1PU3AS1i_param_1];
	ld.param.u64 	%rd1, [_ZN2cl4sycl6detail14multi_ptr_baseIiLNS0_6access13address_spaceE1EEC2E__ns1PU3AS1i_param_0];
	st.u64 	[%SP+0], %rd1;
	st.u64 	[%SP+8], %rd2;
	ld.u64 	%rd3, [%SP+0];
	ld.u64 	%rd4, [%SP+8];
	st.u64 	[%rd3], %rd4;
	ret;
}
                                        // -- End function
	// .globl	_ZNK2cl4sycl6detail14multi_ptr_baseIiLNS0_6access13address_spaceE1EE20get_pointer_internalE__ns1v // -- Begin function _ZNK2cl4sycl6detail14multi_ptr_baseIiLNS0_6access13address_spaceE1EE20get_pointer_internalE__ns1v
.func  (.param .b64 func_retval0) _ZNK2cl4sycl6detail14multi_ptr_baseIiLNS0_6access13address_spaceE1EE20get_pointer_internalE__ns1v(
	.param .b64 _ZNK2cl4sycl6detail14multi_ptr_baseIiLNS0_6access13address_spaceE1EE20get_pointer_internalE__ns1v_param_0
)                                       // @_ZNK2cl4sycl6detail14multi_ptr_baseIiLNS0_6access13address_spaceE1EE20get_pointer_internalE__ns1v
{
	.local .align 8 .b8 	__local_depot56[8];
	.reg .b64 	%SP;
	.reg .b64 	%SPL;
	.reg .b64 	%rd<5>;

// %bb.0:
	mov.u64 	%SPL, __local_depot56;
	cvta.local.u64 	%SP, %SPL;
	ld.param.u64 	%rd1, [_ZNK2cl4sycl6detail14multi_ptr_baseIiLNS0_6access13address_spaceE1EE20get_pointer_internalE__ns1v_param_0];
	st.u64 	[%SP+0], %rd1;
	ld.u64 	%rd2, [%SP+0];
	ld.u64 	%rd3, [%rd2];
	{ // callseq 139, 0
	.reg .b32 temp_param_reg;
	.param .b64 param0;
	st.param.b64 	[param0+0], %rd3;
	.param .b64 retval0;
	call.uni (retval0), 
	_ZN2cl4sycl6detail25get_pointer_internal_typeIiLNS0_6access13address_spaceE1EEE__ns1PU3AS1iS6_, 
	(
	param0
	);
	ld.param.b64 	%rd4, [retval0+0];
	} // callseq 139
	st.param.b64 	[func_retval0+0], %rd4;
	ret;
}
                                        // -- End function
	// .globl	_ZNK2cl4sycl6detail15accessor_commonIbLi1ELNS0_6access4modeE2ELNS3_6targetE1ELNS3_11placeholderE0EE14get_device_ptrE__ns1v // -- Begin function _ZNK2cl4sycl6detail15accessor_commonIbLi1ELNS0_6access4modeE2ELNS3_6targetE1ELNS3_11placeholderE0EE14get_device_ptrE__ns1v
.func  (.param .b64 func_retval0) _ZNK2cl4sycl6detail15accessor_commonIbLi1ELNS0_6access4modeE2ELNS3_6targetE1ELNS3_11placeholderE0EE14get_device_ptrE__ns1v(
	.param .b64 _ZNK2cl4sycl6detail15accessor_commonIbLi1ELNS0_6access4modeE2ELNS3_6targetE1ELNS3_11placeholderE0EE14get_device_ptrE__ns1v_param_0
)                                       // @_ZNK2cl4sycl6detail15accessor_commonIbLi1ELNS0_6access4modeE2ELNS3_6targetE1ELNS3_11placeholderE0EE14get_device_ptrE__ns1v
{
	.local .align 8 .b8 	__local_depot57[8];
	.reg .b64 	%SP;
	.reg .b64 	%SPL;
	.reg .b64 	%rd<4>;

// %bb.0:
	mov.u64 	%SPL, __local_depot57;
	cvta.local.u64 	%SP, %SPL;
	ld.param.u64 	%rd1, [_ZNK2cl4sycl6detail15accessor_commonIbLi1ELNS0_6access4modeE2ELNS3_6targetE1ELNS3_11placeholderE0EE14get_device_ptrE__ns1v_param_0];
	st.u64 	[%SP+0], %rd1;
	ld.u64 	%rd2, [%SP+0];
	{ // callseq 140, 0
	.reg .b32 temp_param_reg;
	.param .b64 param0;
	st.param.b64 	[param0+0], %rd2;
	.param .b64 retval0;
	call.uni (retval0), 
	_ZNK2cl4sycl10device_argIbLi1ELNS0_6access4modeE2ELNS2_6targetE1ELNS2_11placeholderE0EE7get_ptrE__ns1v, 
	(
	param0
	);
	ld.param.b64 	%rd3, [retval0+0];
	} // callseq 140
	st.param.b64 	[func_retval0+0], %rd3;
	ret;
}
                                        // -- End function
	// .globl	_ZNK2cl4sycl10device_argIbLi1ELNS0_6access4modeE2ELNS2_6targetE1ELNS2_11placeholderE0EE7get_ptrE__ns1v // -- Begin function _ZNK2cl4sycl10device_argIbLi1ELNS0_6access4modeE2ELNS2_6targetE1ELNS2_11placeholderE0EE7get_ptrE__ns1v
.func  (.param .b64 func_retval0) _ZNK2cl4sycl10device_argIbLi1ELNS0_6access4modeE2ELNS2_6targetE1ELNS2_11placeholderE0EE7get_ptrE__ns1v(
	.param .b64 _ZNK2cl4sycl10device_argIbLi1ELNS0_6access4modeE2ELNS2_6targetE1ELNS2_11placeholderE0EE7get_ptrE__ns1v_param_0
)                                       // @_ZNK2cl4sycl10device_argIbLi1ELNS0_6access4modeE2ELNS2_6targetE1ELNS2_11placeholderE0EE7get_ptrE__ns1v
{
	.local .align 8 .b8 	__local_depot58[16];
	.reg .b64 	%SP;
	.reg .b64 	%SPL;
	.reg .b64 	%rd<6>;

// %bb.0:
	mov.u64 	%SPL, __local_depot58;
	cvta.local.u64 	%SP, %SPL;
	ld.param.u64 	%rd1, [_ZNK2cl4sycl10device_argIbLi1ELNS0_6access4modeE2ELNS2_6targetE1ELNS2_11placeholderE0EE7get_ptrE__ns1v_param_0];
	st.u64 	[%SP+0], %rd1;
	ld.u64 	%rd2, [%SP+0];
	ld.u64 	%rd3, [%rd2];
	add.u64 	%rd4, %SP, 8;
	{ // callseq 141, 0
	.reg .b32 temp_param_reg;
	.param .b64 param0;
	st.param.b64 	[param0+0], %rd4;
	.param .b64 param1;
	st.param.b64 	[param1+0], %rd3;
	call.uni 
	_ZN2cl4sycl9multi_ptrIbLNS0_6access13address_spaceE1EEC2E__ns1PU3AS1b, 
	(
	param0, 
	param1
	);
	} // callseq 141
	{ // callseq 142, 0
	.reg .b32 temp_param_reg;
	.param .b64 param0;
	st.param.b64 	[param0+0], %rd4;
	.param .b64 retval0;
	call.uni (retval0), 
	_ZNK2cl4sycl6detail14multi_ptr_baseIbLNS0_6access13address_spaceE1EEcvPbE__ns1v, 
	(
	param0
	);
	ld.param.b64 	%rd5, [retval0+0];
	} // callseq 142
	st.param.b64 	[func_retval0+0], %rd5;
	ret;
}
                                        // -- End function

