//
// Generated by LLVM NVPTX Back-End
//

.version 3.2
.target sm_20, texmode_independent
.address_size 64

.func _ZN2cl4sycl6detail11index_arrayC2E__ns1mmm
(
	.param .b64 _ZN2cl4sycl6detail11index_arrayC2E__ns1mmm_param_0,
	.param .b64 _ZN2cl4sycl6detail11index_arrayC2E__ns1mmm_param_1,
	.param .b64 _ZN2cl4sycl6detail11index_arrayC2E__ns1mmm_param_2,
	.param .b64 _ZN2cl4sycl6detail11index_arrayC2E__ns1mmm_param_3
)
;
.func _ZN2cl4sycl6detail9item_baseC2E__ns1NS1_11index_arrayES3_
(
	.param .b64 _ZN2cl4sycl6detail9item_baseC2E__ns1NS1_11index_arrayES3__param_0,
	.param .align 8 .b8 _ZN2cl4sycl6detail9item_baseC2E__ns1NS1_11index_arrayES3__param_1[24],
	.param .align 8 .b8 _ZN2cl4sycl6detail9item_baseC2E__ns1NS1_11index_arrayES3__param_2[24]
)
;
.func _ZN2cl4sycl2idILi1EEC2E__ns1RKNS0_6detail9item_baseE
(
	.param .b64 _ZN2cl4sycl2idILi1EEC2E__ns1RKNS0_6detail9item_baseE_param_0,
	.param .b64 _ZN2cl4sycl2idILi1EEC2E__ns1RKNS0_6detail9item_baseE_param_1
)
;
.func _ZN2cl4sycl6detail9item_baseC2E__ns1NS1_11index_arrayES3_S3_
(
	.param .b64 _ZN2cl4sycl6detail9item_baseC2E__ns1NS1_11index_arrayES3_S3__param_0,
	.param .align 8 .b8 _ZN2cl4sycl6detail9item_baseC2E__ns1NS1_11index_arrayES3_S3__param_1[24],
	.param .align 8 .b8 _ZN2cl4sycl6detail9item_baseC2E__ns1NS1_11index_arrayES3_S3__param_2[24],
	.param .align 8 .b8 _ZN2cl4sycl6detail9item_baseC2E__ns1NS1_11index_arrayES3_S3__param_3[24]
)
;
.func  (.param .b64 func_retval0) _ZN2cl4sycl6detail11index_arrayixE__ns1j
(
	.param .b64 _ZN2cl4sycl6detail11index_arrayixE__ns1j_param_0,
	.param .b32 _ZN2cl4sycl6detail11index_arrayixE__ns1j_param_1
)
;
.func  (.param .b64 func_retval0) _ZNK2cl4sycl6detail16index_array_base3getE__ns1j
(
	.param .b64 _ZNK2cl4sycl6detail16index_array_base3getE__ns1j_param_0,
	.param .b32 _ZNK2cl4sycl6detail16index_array_base3getE__ns1j_param_1
)
;
.func  (.param .b32 func_retval0) _ZNK2cl4sycl6detail15accessor_commonIfLi1ELNS0_6access4modeE0ELNS3_6targetE1ELNS3_11placeholderE0EEixIfvEE__ns1fm
(
	.param .b64 _ZNK2cl4sycl6detail15accessor_commonIfLi1ELNS0_6access4modeE0ELNS3_6targetE1ELNS3_11placeholderE0EEixIfvEE__ns1fm_param_0,
	.param .b64 _ZNK2cl4sycl6detail15accessor_commonIfLi1ELNS0_6access4modeE0ELNS3_6targetE1ELNS3_11placeholderE0EEixIfvEE__ns1fm_param_1
)
;
.func  (.param .b64 func_retval0) _ZNK2cl4sycl6detail15accessor_commonIiLi1ELNS0_6access4modeE1ELNS3_6targetE1ELNS3_11placeholderE0EEixIivEE__ns1RU3AS1im
(
	.param .b64 _ZNK2cl4sycl6detail15accessor_commonIiLi1ELNS0_6access4modeE1ELNS3_6targetE1ELNS3_11placeholderE0EEixIivEE__ns1RU3AS1im_param_0,
	.param .b64 _ZNK2cl4sycl6detail15accessor_commonIiLi1ELNS0_6access4modeE1ELNS3_6targetE1ELNS3_11placeholderE0EEixIivEE__ns1RU3AS1im_param_1
)
;
.func  (.param .b64 func_retval0) _ZNK2cl4sycl6detail15accessor_commonIfLi1ELNS0_6access4modeE1ELNS3_6targetE1ELNS3_11placeholderE0EEixIfvEE__ns1RU3AS1fm
(
	.param .b64 _ZNK2cl4sycl6detail15accessor_commonIfLi1ELNS0_6access4modeE1ELNS3_6targetE1ELNS3_11placeholderE0EEixIfvEE__ns1RU3AS1fm_param_0,
	.param .b64 _ZNK2cl4sycl6detail15accessor_commonIfLi1ELNS0_6access4modeE1ELNS3_6targetE1ELNS3_11placeholderE0EEixIfvEE__ns1RU3AS1fm_param_1
)
;
.func  (.param .b64 func_retval0) _ZNK2cl4sycl6detail11index_arrayixE__ns1j
(
	.param .b64 _ZNK2cl4sycl6detail11index_arrayixE__ns1j_param_0,
	.param .b32 _ZNK2cl4sycl6detail11index_arrayixE__ns1j_param_1
)
;
.func  (.param .b64 func_retval0) _ZNK2cl4sycl6detail15accessor_commonIfLi1ELNS0_6access4modeE0ELNS3_6targetE1ELNS3_11placeholderE0EE14get_device_ptrE__ns1v
(
	.param .b64 _ZNK2cl4sycl6detail15accessor_commonIfLi1ELNS0_6access4modeE0ELNS3_6targetE1ELNS3_11placeholderE0EE14get_device_ptrE__ns1v_param_0
)
;
.func  (.param .b64 func_retval0) _ZNK2cl4sycl10device_argIfLi1ELNS0_6access4modeE0ELNS2_6targetE1ELNS2_11placeholderE0EE7get_ptrE__ns1v
(
	.param .b64 _ZNK2cl4sycl10device_argIfLi1ELNS0_6access4modeE0ELNS2_6targetE1ELNS2_11placeholderE0EE7get_ptrE__ns1v_param_0
)
;
.func _ZN2cl4sycl9multi_ptrIfLNS0_6access13address_spaceE1EEC2E__ns1PU3AS1f
(
	.param .b64 _ZN2cl4sycl9multi_ptrIfLNS0_6access13address_spaceE1EEC2E__ns1PU3AS1f_param_0,
	.param .b64 _ZN2cl4sycl9multi_ptrIfLNS0_6access13address_spaceE1EEC2E__ns1PU3AS1f_param_1
)
;
.func  (.param .b64 func_retval0) _ZNK2cl4sycl6detail14multi_ptr_baseIfLNS0_6access13address_spaceE1EEcvPfE__ns1v
(
	.param .b64 _ZNK2cl4sycl6detail14multi_ptr_baseIfLNS0_6access13address_spaceE1EEcvPfE__ns1v_param_0
)
;
.func _ZN2cl4sycl6detail14multi_ptr_baseIfLNS0_6access13address_spaceE1EEC2E__ns1PU3AS1f
(
	.param .b64 _ZN2cl4sycl6detail14multi_ptr_baseIfLNS0_6access13address_spaceE1EEC2E__ns1PU3AS1f_param_0,
	.param .b64 _ZN2cl4sycl6detail14multi_ptr_baseIfLNS0_6access13address_spaceE1EEC2E__ns1PU3AS1f_param_1
)
;
.func  (.param .b64 func_retval0) _ZNK2cl4sycl6detail14multi_ptr_baseIfLNS0_6access13address_spaceE1EE20get_pointer_internalE__ns1v
(
	.param .b64 _ZNK2cl4sycl6detail14multi_ptr_baseIfLNS0_6access13address_spaceE1EE20get_pointer_internalE__ns1v_param_0
)
;
.func  (.param .b64 func_retval0) _ZNK2cl4sycl6detail15accessor_commonIiLi1ELNS0_6access4modeE1ELNS3_6targetE1ELNS3_11placeholderE0EE14get_device_ptrE__ns1v
(
	.param .b64 _ZNK2cl4sycl6detail15accessor_commonIiLi1ELNS0_6access4modeE1ELNS3_6targetE1ELNS3_11placeholderE0EE14get_device_ptrE__ns1v_param_0
)
;
.func  (.param .b64 func_retval0) _ZNK2cl4sycl10device_argIiLi1ELNS0_6access4modeE1ELNS2_6targetE1ELNS2_11placeholderE0EE7get_ptrE__ns1v
(
	.param .b64 _ZNK2cl4sycl10device_argIiLi1ELNS0_6access4modeE1ELNS2_6targetE1ELNS2_11placeholderE0EE7get_ptrE__ns1v_param_0
)
;
.func _ZN2cl4sycl9multi_ptrIiLNS0_6access13address_spaceE1EEC2E__ns1PU3AS1i
(
	.param .b64 _ZN2cl4sycl9multi_ptrIiLNS0_6access13address_spaceE1EEC2E__ns1PU3AS1i_param_0,
	.param .b64 _ZN2cl4sycl9multi_ptrIiLNS0_6access13address_spaceE1EEC2E__ns1PU3AS1i_param_1
)
;
.func  (.param .b64 func_retval0) _ZNK2cl4sycl6detail14multi_ptr_baseIiLNS0_6access13address_spaceE1EEcvPiE__ns1v
(
	.param .b64 _ZNK2cl4sycl6detail14multi_ptr_baseIiLNS0_6access13address_spaceE1EEcvPiE__ns1v_param_0
)
;
.func _ZN2cl4sycl6detail14multi_ptr_baseIiLNS0_6access13address_spaceE1EEC2E__ns1PU3AS1i
(
	.param .b64 _ZN2cl4sycl6detail14multi_ptr_baseIiLNS0_6access13address_spaceE1EEC2E__ns1PU3AS1i_param_0,
	.param .b64 _ZN2cl4sycl6detail14multi_ptr_baseIiLNS0_6access13address_spaceE1EEC2E__ns1PU3AS1i_param_1
)
;
.func  (.param .b64 func_retval0) _ZNK2cl4sycl6detail14multi_ptr_baseIiLNS0_6access13address_spaceE1EE20get_pointer_internalE__ns1v
(
	.param .b64 _ZNK2cl4sycl6detail14multi_ptr_baseIiLNS0_6access13address_spaceE1EE20get_pointer_internalE__ns1v_param_0
)
;
.func  (.param .b64 func_retval0) _ZNK2cl4sycl6detail15accessor_commonIfLi1ELNS0_6access4modeE1ELNS3_6targetE1ELNS3_11placeholderE0EE14get_device_ptrE__ns1v
(
	.param .b64 _ZNK2cl4sycl6detail15accessor_commonIfLi1ELNS0_6access4modeE1ELNS3_6targetE1ELNS3_11placeholderE0EE14get_device_ptrE__ns1v_param_0
)
;
.func  (.param .b64 func_retval0) _ZNK2cl4sycl10device_argIfLi1ELNS0_6access4modeE1ELNS2_6targetE1ELNS2_11placeholderE0EE7get_ptrE__ns1v
(
	.param .b64 _ZNK2cl4sycl10device_argIfLi1ELNS0_6access4modeE1ELNS2_6targetE1ELNS2_11placeholderE0EE7get_ptrE__ns1v_param_0
)
;
.func  (.param .b64 func_retval0) _ZNK2cl4sycl6detail9item_base6get_idE__ns1i
(
	.param .b64 _ZNK2cl4sycl6detail9item_base6get_idE__ns1i_param_0,
	.param .b32 _ZNK2cl4sycl6detail9item_base6get_idE__ns1i_param_1
)
;
.func _ZN2cl4sycl6detail21index_array_operatorsILi1ENS0_2idEEC2E__ns1mmm
(
	.param .b64 _ZN2cl4sycl6detail21index_array_operatorsILi1ENS0_2idEEC2E__ns1mmm_param_0,
	.param .b64 _ZN2cl4sycl6detail21index_array_operatorsILi1ENS0_2idEEC2E__ns1mmm_param_1,
	.param .b64 _ZN2cl4sycl6detail21index_array_operatorsILi1ENS0_2idEEC2E__ns1mmm_param_2,
	.param .b64 _ZN2cl4sycl6detail21index_array_operatorsILi1ENS0_2idEEC2E__ns1mmm_param_3
)
;
.func _ZN2cl4sycl6detail16index_array_baseC2E__ns1mmm
(
	.param .b64 _ZN2cl4sycl6detail16index_array_baseC2E__ns1mmm_param_0,
	.param .b64 _ZN2cl4sycl6detail16index_array_baseC2E__ns1mmm_param_1,
	.param .b64 _ZN2cl4sycl6detail16index_array_baseC2E__ns1mmm_param_2,
	.param .b64 _ZN2cl4sycl6detail16index_array_baseC2E__ns1mmm_param_3
)
;
                                        // -- Begin function _ZN2cl4sycl6memcpyIccyEE__ns1vPcPKcy
                                        // @_ZN2cl4sycl6memcpyIccyEE__ns1vPcPKcy
.func _ZN2cl4sycl6memcpyIccyEE__ns1vPcPKcy(
	.param .b64 _ZN2cl4sycl6memcpyIccyEE__ns1vPcPKcy_param_0,
	.param .b64 _ZN2cl4sycl6memcpyIccyEE__ns1vPcPKcy_param_1,
	.param .b64 _ZN2cl4sycl6memcpyIccyEE__ns1vPcPKcy_param_2
)
{
	.local .align 8 .b8 	__local_depot0[32];
	.reg .b64 	%SP;
	.reg .b64 	%SPL;
	.reg .pred 	%p<2>;
	.reg .b16 	%rs<2>;
	.reg .b64 	%rd<14>;

// %bb.0:
	mov.u64 	%SPL, __local_depot0;
	cvta.local.u64 	%SP, %SPL;
	ld.param.u64 	%rd3, [_ZN2cl4sycl6memcpyIccyEE__ns1vPcPKcy_param_2];
	ld.param.u64 	%rd2, [_ZN2cl4sycl6memcpyIccyEE__ns1vPcPKcy_param_1];
	ld.param.u64 	%rd1, [_ZN2cl4sycl6memcpyIccyEE__ns1vPcPKcy_param_0];
	st.u64 	[%SP+0], %rd1;
	st.u64 	[%SP+8], %rd2;
	st.u64 	[%SP+16], %rd3;
	mov.u64 	%rd4, 0;
	st.u64 	[%SP+24], %rd4;
	bra.uni 	LBB0_1;
LBB0_1:                                 // =>This Inner Loop Header: Depth=1
	ld.u64 	%rd5, [%SP+24];
	ld.u64 	%rd6, [%SP+16];
	setp.ge.u64 	%p1, %rd5, %rd6;
	@%p1 bra 	LBB0_4;
	bra.uni 	LBB0_2;
LBB0_2:                                 //   in Loop: Header=BB0_1 Depth=1
	ld.u64 	%rd7, [%SP+8];
	ld.u64 	%rd8, [%SP+24];
	add.s64 	%rd9, %rd7, %rd8;
	ld.u8 	%rs1, [%rd9];
	ld.u64 	%rd10, [%SP+0];
	add.s64 	%rd11, %rd10, %rd8;
	st.u8 	[%rd11], %rs1;
	bra.uni 	LBB0_3;
LBB0_3:                                 //   in Loop: Header=BB0_1 Depth=1
	ld.u64 	%rd12, [%SP+24];
	add.s64 	%rd13, %rd12, 1;
	st.u64 	[%SP+24], %rd13;
	bra.uni 	LBB0_1;
LBB0_4:
	ret;
}
                                        // -- End function
	// .globl	_ZN2cl4sycl6detail13get_global_idE__ns1j // -- Begin function _ZN2cl4sycl6detail13get_global_idE__ns1j
.func  (.param .b64 func_retval0) _ZN2cl4sycl6detail13get_global_idE__ns1j(
	.param .b32 _ZN2cl4sycl6detail13get_global_idE__ns1j_param_0
)                                       // @_ZN2cl4sycl6detail13get_global_idE__ns1j
{
	.local .align 4 .b8 	__local_depot1[4];
	.reg .b64 	%SP;
	.reg .b64 	%SPL;
	.reg .pred 	%p<4>;
	.reg .b32 	%r<20>;
	.reg .b64 	%rd<4>;

// %bb.0:
	mov.u64 	%SPL, __local_depot1;
	cvta.local.u64 	%SP, %SPL;
	ld.param.u32 	%r9, [_ZN2cl4sycl6detail13get_global_idE__ns1j_param_0];
	st.u32 	[%SP+0], %r9;
	mov.u32 	%r10, 0;
	ld.u32 	%r11, [%SP+0];
	setp.eq.s32 	%p1, %r11, 0;
	@%p1 bra 	LBB1_1;
	bra.uni 	LBB1_5;
LBB1_5:
	setp.eq.s32 	%p2, %r11, 1;
	@%p2 bra 	LBB1_2;
	bra.uni 	LBB1_6;
LBB1_6:
	setp.eq.s32 	%p3, %r11, 2;
	mov.u32 	%r18, %r10;
	mov.u32 	%r19, %r10;
	@%p3 bra 	LBB1_3;
	bra.uni 	LBB1_4;
LBB1_1:
	mov.u32 	%r16, %ctaid.x;
	mov.u32 	%r17, %ntid.x;
	mul.lo.s32 	%r1, %r17, %r16;
	mov.u32 	%r2, %tid.x;
	mov.u32 	%r18, %r1;
	mov.u32 	%r19, %r2;
	bra.uni 	LBB1_4;
LBB1_2:
	mov.u32 	%r14, %ctaid.y;
	mov.u32 	%r15, %ntid.y;
	mul.lo.s32 	%r3, %r15, %r14;
	mov.u32 	%r4, %tid.y;
	mov.u32 	%r18, %r3;
	mov.u32 	%r19, %r4;
	bra.uni 	LBB1_4;
LBB1_3:
	mov.u32 	%r12, %ctaid.z;
	mov.u32 	%r13, %ntid.z;
	mul.lo.s32 	%r5, %r13, %r12;
	mov.u32 	%r6, %tid.z;
	mov.u32 	%r18, %r5;
	mov.u32 	%r19, %r6;
	bra.uni 	LBB1_4;
LBB1_4:
	mov.u32 	%r8, %r19;
	mov.u32 	%r7, %r18;
	cvt.u64.u32 	%rd1, %r7;
	cvt.u64.u32 	%rd2, %r8;
	add.s64 	%rd3, %rd2, %rd1;
	st.param.b64 	[func_retval0+0], %rd3;
	ret;
}
                                        // -- End function
	// .globl	_ZN2cl4sycl6detail15get_global_sizeE__ns1j // -- Begin function _ZN2cl4sycl6detail15get_global_sizeE__ns1j
.func  (.param .b64 func_retval0) _ZN2cl4sycl6detail15get_global_sizeE__ns1j(
	.param .b32 _ZN2cl4sycl6detail15get_global_sizeE__ns1j_param_0
)                                       // @_ZN2cl4sycl6detail15get_global_sizeE__ns1j
{
	.local .align 4 .b8 	__local_depot2[4];
	.reg .b64 	%SP;
	.reg .b64 	%SPL;
	.reg .pred 	%p<4>;
	.reg .b32 	%r<15>;
	.reg .b64 	%rd<2>;

// %bb.0:
	mov.u64 	%SPL, __local_depot2;
	cvta.local.u64 	%SP, %SPL;
	ld.param.u32 	%r9, [_ZN2cl4sycl6detail15get_global_sizeE__ns1j_param_0];
	st.u32 	[%SP+0], %r9;
	mov.u32 	%r10, 0;
	ld.u32 	%r11, [%SP+0];
	setp.eq.s32 	%p1, %r11, 0;
	@%p1 bra 	LBB2_1;
	bra.uni 	LBB2_5;
LBB2_5:
	setp.eq.s32 	%p2, %r11, 1;
	@%p2 bra 	LBB2_2;
	bra.uni 	LBB2_6;
LBB2_6:
	setp.eq.s32 	%p3, %r11, 2;
	mov.u32 	%r13, %r10;
	mov.u32 	%r14, %r10;
	@%p3 bra 	LBB2_3;
	bra.uni 	LBB2_4;
LBB2_1:
	mov.u32 	%r1, %nctaid.x;
	mov.u32 	%r2, %ntid.x;
	mov.u32 	%r13, %r1;
	mov.u32 	%r14, %r2;
	bra.uni 	LBB2_4;
LBB2_2:
	mov.u32 	%r3, %nctaid.y;
	mov.u32 	%r4, %ntid.y;
	mov.u32 	%r13, %r3;
	mov.u32 	%r14, %r4;
	bra.uni 	LBB2_4;
LBB2_3:
	mov.u32 	%r5, %nctaid.z;
	mov.u32 	%r6, %ntid.z;
	mov.u32 	%r13, %r5;
	mov.u32 	%r14, %r6;
	bra.uni 	LBB2_4;
LBB2_4:
	mov.u32 	%r8, %r14;
	mov.u32 	%r7, %r13;
	mul.lo.s32 	%r12, %r8, %r7;
	cvt.u64.u32 	%rd1, %r12;
	st.param.b64 	[func_retval0+0], %rd1;
	ret;
}
                                        // -- End function
	// .globl	_ZN2cl4sycl6detail32construct_linear_row_major_indexILm3EEE__ns1mmmmmmm // -- Begin function _ZN2cl4sycl6detail32construct_linear_row_major_indexILm3EEE__ns1mmmmmmm
.func  (.param .b64 func_retval0) _ZN2cl4sycl6detail32construct_linear_row_major_indexILm3EEE__ns1mmmmmmm(
	.param .b64 _ZN2cl4sycl6detail32construct_linear_row_major_indexILm3EEE__ns1mmmmmmm_param_0,
	.param .b64 _ZN2cl4sycl6detail32construct_linear_row_major_indexILm3EEE__ns1mmmmmmm_param_1,
	.param .b64 _ZN2cl4sycl6detail32construct_linear_row_major_indexILm3EEE__ns1mmmmmmm_param_2,
	.param .b64 _ZN2cl4sycl6detail32construct_linear_row_major_indexILm3EEE__ns1mmmmmmm_param_3,
	.param .b64 _ZN2cl4sycl6detail32construct_linear_row_major_indexILm3EEE__ns1mmmmmmm_param_4,
	.param .b64 _ZN2cl4sycl6detail32construct_linear_row_major_indexILm3EEE__ns1mmmmmmm_param_5
)                                       // @_ZN2cl4sycl6detail32construct_linear_row_major_indexILm3EEE__ns1mmmmmmm
{
	.local .align 8 .b8 	__local_depot3[48];
	.reg .b64 	%SP;
	.reg .b64 	%SPL;
	.reg .b64 	%rd<17>;

// %bb.0:
	mov.u64 	%SPL, __local_depot3;
	cvta.local.u64 	%SP, %SPL;
	ld.param.u64 	%rd6, [_ZN2cl4sycl6detail32construct_linear_row_major_indexILm3EEE__ns1mmmmmmm_param_5];
	ld.param.u64 	%rd5, [_ZN2cl4sycl6detail32construct_linear_row_major_indexILm3EEE__ns1mmmmmmm_param_4];
	ld.param.u64 	%rd4, [_ZN2cl4sycl6detail32construct_linear_row_major_indexILm3EEE__ns1mmmmmmm_param_3];
	ld.param.u64 	%rd3, [_ZN2cl4sycl6detail32construct_linear_row_major_indexILm3EEE__ns1mmmmmmm_param_2];
	ld.param.u64 	%rd2, [_ZN2cl4sycl6detail32construct_linear_row_major_indexILm3EEE__ns1mmmmmmm_param_1];
	ld.param.u64 	%rd1, [_ZN2cl4sycl6detail32construct_linear_row_major_indexILm3EEE__ns1mmmmmmm_param_0];
	st.u64 	[%SP+0], %rd1;
	st.u64 	[%SP+8], %rd2;
	st.u64 	[%SP+16], %rd3;
	st.u64 	[%SP+24], %rd4;
	st.u64 	[%SP+32], %rd5;
	st.u64 	[%SP+40], %rd6;
	ld.u64 	%rd7, [%SP+16];
	ld.u64 	%rd8, [%SP+8];
	ld.u64 	%rd9, [%SP+40];
	mul.lo.s64 	%rd10, %rd8, %rd9;
	add.s64 	%rd11, %rd7, %rd10;
	ld.u64 	%rd12, [%SP+0];
	ld.u64 	%rd13, [%SP+32];
	mul.lo.s64 	%rd14, %rd12, %rd13;
	mul.lo.s64 	%rd15, %rd14, %rd9;
	add.s64 	%rd16, %rd11, %rd15;
	st.param.b64 	[func_retval0+0], %rd16;
	ret;
}
                                        // -- End function
	// .globl	_ZN2cl4sycl6detail25get_pointer_internal_typeIiLNS0_6access13address_spaceE1EEE__ns1PU3AS1iS6_ // -- Begin function _ZN2cl4sycl6detail25get_pointer_internal_typeIiLNS0_6access13address_spaceE1EEE__ns1PU3AS1iS6_
.func  (.param .b64 func_retval0) _ZN2cl4sycl6detail25get_pointer_internal_typeIiLNS0_6access13address_spaceE1EEE__ns1PU3AS1iS6_(
	.param .b64 _ZN2cl4sycl6detail25get_pointer_internal_typeIiLNS0_6access13address_spaceE1EEE__ns1PU3AS1iS6__param_0
)                                       // @_ZN2cl4sycl6detail25get_pointer_internal_typeIiLNS0_6access13address_spaceE1EEE__ns1PU3AS1iS6_
{
	.local .align 8 .b8 	__local_depot4[8];
	.reg .b64 	%SP;
	.reg .b64 	%SPL;
	.reg .b64 	%rd<3>;

// %bb.0:
	mov.u64 	%SPL, __local_depot4;
	cvta.local.u64 	%SP, %SPL;
	ld.param.u64 	%rd1, [_ZN2cl4sycl6detail25get_pointer_internal_typeIiLNS0_6access13address_spaceE1EEE__ns1PU3AS1iS6__param_0];
	st.u64 	[%SP+0], %rd1;
	ld.u64 	%rd2, [%SP+0];
	st.param.b64 	[func_retval0+0], %rd2;
	ret;
}
                                        // -- End function
	// .globl	_ZN2cl4sycl6detail25get_pointer_internal_typeIfLNS0_6access13address_spaceE1EEE__ns1PU3AS1fS6_ // -- Begin function _ZN2cl4sycl6detail25get_pointer_internal_typeIfLNS0_6access13address_spaceE1EEE__ns1PU3AS1fS6_
.func  (.param .b64 func_retval0) _ZN2cl4sycl6detail25get_pointer_internal_typeIfLNS0_6access13address_spaceE1EEE__ns1PU3AS1fS6_(
	.param .b64 _ZN2cl4sycl6detail25get_pointer_internal_typeIfLNS0_6access13address_spaceE1EEE__ns1PU3AS1fS6__param_0
)                                       // @_ZN2cl4sycl6detail25get_pointer_internal_typeIfLNS0_6access13address_spaceE1EEE__ns1PU3AS1fS6_
{
	.local .align 8 .b8 	__local_depot5[8];
	.reg .b64 	%SP;
	.reg .b64 	%SPL;
	.reg .b64 	%rd<3>;

// %bb.0:
	mov.u64 	%SPL, __local_depot5;
	cvta.local.u64 	%SP, %SPL;
	ld.param.u64 	%rd1, [_ZN2cl4sycl6detail25get_pointer_internal_typeIfLNS0_6access13address_spaceE1EEE__ns1PU3AS1fS6__param_0];
	st.u64 	[%SP+0], %rd1;
	ld.u64 	%rd2, [%SP+0];
	st.param.b64 	[func_retval0+0], %rd2;
	ret;
}
                                        // -- End function
	// .globl	SYCL_class_points2image_main // -- Begin function SYCL_class_points2image_main
.entry SYCL_class_points2image_main(
	.param .u32 SYCL_class_points2image_main_param_0,
	.param .u64 .ptr .global .align 4 SYCL_class_points2image_main_param_1,
	.param .align 4 .b8 SYCL_class_points2image_main_param_2[16],
	.param .align 4 .b8 SYCL_class_points2image_main_param_3[16],
	.param .align 4 .b8 SYCL_class_points2image_main_param_4[16],
	.param .align 8 .b8 SYCL_class_points2image_main_param_5[24],
	.param .align 8 .b8 SYCL_class_points2image_main_param_6[72],
	.param .align 8 .b8 SYCL_class_points2image_main_param_7[40],
	.param .align 8 .b8 SYCL_class_points2image_main_param_8[72],
	.param .u32 SYCL_class_points2image_main_param_9,
	.param .u32 SYCL_class_points2image_main_param_10,
	.param .u64 .ptr .global .align 4 SYCL_class_points2image_main_param_11,
	.param .align 4 .b8 SYCL_class_points2image_main_param_12[16],
	.param .align 4 .b8 SYCL_class_points2image_main_param_13[16],
	.param .align 4 .b8 SYCL_class_points2image_main_param_14[16],
	.param .u64 .ptr .global .align 4 SYCL_class_points2image_main_param_15,
	.param .align 4 .b8 SYCL_class_points2image_main_param_16[16],
	.param .align 4 .b8 SYCL_class_points2image_main_param_17[16],
	.param .align 4 .b8 SYCL_class_points2image_main_param_18[16]
)                                       // @SYCL_class_points2image_main
{
	.local .align 8 .b8 	__local_depot6[1128];
	.reg .b64 	%SP;
	.reg .b64 	%SPL;
	.reg .pred 	%p<8>;
	.reg .f32 	%f<7>;
	.reg .b32 	%r<83>;
	.reg .f64 	%fd<107>;
	.reg .b64 	%rd<126>;

// %bb.0:
	mov.u64 	%SPL, __local_depot6;
	cvta.local.u64 	%SP, %SPL;
	mov.b64 	%rd17, SYCL_class_points2image_main_param_18;
	mov.b64 	%rd16, SYCL_class_points2image_main_param_17;
	mov.b64 	%rd15, SYCL_class_points2image_main_param_16;
	ld.param.u64 	%rd14, [SYCL_class_points2image_main_param_15];
	mov.b64 	%rd13, SYCL_class_points2image_main_param_14;
	mov.b64 	%rd12, SYCL_class_points2image_main_param_13;
	mov.b64 	%rd11, SYCL_class_points2image_main_param_12;
	ld.param.u64 	%rd10, [SYCL_class_points2image_main_param_11];
	ld.param.u32 	%r3, [SYCL_class_points2image_main_param_10];
	ld.param.u32 	%r2, [SYCL_class_points2image_main_param_9];
	mov.b64 	%rd9, SYCL_class_points2image_main_param_8;
	mov.b64 	%rd8, SYCL_class_points2image_main_param_7;
	mov.b64 	%rd7, SYCL_class_points2image_main_param_6;
	mov.b64 	%rd6, SYCL_class_points2image_main_param_5;
	mov.b64 	%rd5, SYCL_class_points2image_main_param_4;
	mov.b64 	%rd4, SYCL_class_points2image_main_param_3;
	mov.b64 	%rd3, SYCL_class_points2image_main_param_2;
	ld.param.u64 	%rd2, [SYCL_class_points2image_main_param_1];
	ld.param.u32 	%r1, [SYCL_class_points2image_main_param_0];
	ld.param.u32 	%r4, [SYCL_class_points2image_main_param_18];
	ld.param.u32 	%r5, [SYCL_class_points2image_main_param_18+8];
	ld.param.u32 	%r6, [SYCL_class_points2image_main_param_18+12];
	ld.param.u32 	%r7, [SYCL_class_points2image_main_param_18+4];
	add.u64 	%rd18, %SP, 0;
	or.b64  	%rd19, %rd18, 4;
	st.u32 	[%rd19], %r7;
	st.u32 	[%SP+12], %r6;
	st.u32 	[%SP+8], %r5;
	st.u32 	[%SP+0], %r4;
	ld.param.u32 	%r8, [SYCL_class_points2image_main_param_17];
	ld.param.u32 	%r9, [SYCL_class_points2image_main_param_17+8];
	ld.param.u32 	%r10, [SYCL_class_points2image_main_param_17+12];
	ld.param.u32 	%r11, [SYCL_class_points2image_main_param_17+4];
	add.u64 	%rd20, %SP, 16;
	or.b64  	%rd21, %rd20, 4;
	st.u32 	[%rd21], %r11;
	st.u32 	[%SP+28], %r10;
	st.u32 	[%SP+24], %r9;
	st.u32 	[%SP+16], %r8;
	ld.param.u32 	%r12, [SYCL_class_points2image_main_param_16];
	ld.param.u32 	%r13, [SYCL_class_points2image_main_param_16+8];
	ld.param.u32 	%r14, [SYCL_class_points2image_main_param_16+12];
	ld.param.u32 	%r15, [SYCL_class_points2image_main_param_16+4];
	add.u64 	%rd22, %SP, 32;
	or.b64  	%rd23, %rd22, 4;
	st.u32 	[%rd23], %r15;
	st.u32 	[%SP+44], %r14;
	st.u32 	[%SP+40], %r13;
	st.u32 	[%SP+32], %r12;
	ld.param.u32 	%r16, [SYCL_class_points2image_main_param_14];
	ld.param.u32 	%r17, [SYCL_class_points2image_main_param_14+8];
	ld.param.u32 	%r18, [SYCL_class_points2image_main_param_14+12];
	ld.param.u32 	%r19, [SYCL_class_points2image_main_param_14+4];
	add.u64 	%rd24, %SP, 48;
	or.b64  	%rd25, %rd24, 4;
	st.u32 	[%rd25], %r19;
	st.u32 	[%SP+60], %r18;
	st.u32 	[%SP+56], %r17;
	st.u32 	[%SP+48], %r16;
	ld.param.u32 	%r20, [SYCL_class_points2image_main_param_13];
	ld.param.u32 	%r21, [SYCL_class_points2image_main_param_13+8];
	ld.param.u32 	%r22, [SYCL_class_points2image_main_param_13+12];
	ld.param.u32 	%r23, [SYCL_class_points2image_main_param_13+4];
	add.u64 	%rd26, %SP, 64;
	or.b64  	%rd27, %rd26, 4;
	st.u32 	[%rd27], %r23;
	st.u32 	[%SP+76], %r22;
	st.u32 	[%SP+72], %r21;
	st.u32 	[%SP+64], %r20;
	ld.param.u32 	%r24, [SYCL_class_points2image_main_param_12];
	ld.param.u32 	%r25, [SYCL_class_points2image_main_param_12+8];
	ld.param.u32 	%r26, [SYCL_class_points2image_main_param_12+12];
	ld.param.u32 	%r27, [SYCL_class_points2image_main_param_12+4];
	add.u64 	%rd28, %SP, 80;
	or.b64  	%rd29, %rd28, 4;
	st.u32 	[%rd29], %r27;
	st.u32 	[%SP+92], %r26;
	st.u32 	[%SP+88], %r25;
	st.u32 	[%SP+80], %r24;
	ld.param.f64 	%fd1, [SYCL_class_points2image_main_param_8];
	ld.param.f64 	%fd2, [SYCL_class_points2image_main_param_8+8];
	ld.param.f64 	%fd3, [SYCL_class_points2image_main_param_8+16];
	ld.param.f64 	%fd4, [SYCL_class_points2image_main_param_8+24];
	ld.param.f64 	%fd5, [SYCL_class_points2image_main_param_8+32];
	ld.param.f64 	%fd6, [SYCL_class_points2image_main_param_8+40];
	ld.param.f64 	%fd7, [SYCL_class_points2image_main_param_8+48];
	ld.param.f64 	%fd8, [SYCL_class_points2image_main_param_8+56];
	ld.param.f64 	%fd9, [SYCL_class_points2image_main_param_8+64];
	st.f64 	[%SP+160], %fd9;
	st.f64 	[%SP+152], %fd8;
	st.f64 	[%SP+144], %fd7;
	st.f64 	[%SP+136], %fd6;
	st.f64 	[%SP+128], %fd5;
	st.f64 	[%SP+120], %fd4;
	st.f64 	[%SP+112], %fd3;
	st.f64 	[%SP+104], %fd2;
	st.f64 	[%SP+96], %fd1;
	ld.param.f64 	%fd10, [SYCL_class_points2image_main_param_7];
	ld.param.f64 	%fd11, [SYCL_class_points2image_main_param_7+8];
	ld.param.f64 	%fd12, [SYCL_class_points2image_main_param_7+16];
	ld.param.f64 	%fd13, [SYCL_class_points2image_main_param_7+24];
	ld.param.f64 	%fd14, [SYCL_class_points2image_main_param_7+32];
	st.f64 	[%SP+200], %fd14;
	st.f64 	[%SP+192], %fd13;
	st.f64 	[%SP+184], %fd12;
	st.f64 	[%SP+176], %fd11;
	st.f64 	[%SP+168], %fd10;
	ld.param.f64 	%fd15, [SYCL_class_points2image_main_param_6];
	ld.param.f64 	%fd16, [SYCL_class_points2image_main_param_6+8];
	ld.param.f64 	%fd17, [SYCL_class_points2image_main_param_6+16];
	ld.param.f64 	%fd18, [SYCL_class_points2image_main_param_6+24];
	ld.param.f64 	%fd19, [SYCL_class_points2image_main_param_6+32];
	ld.param.f64 	%fd20, [SYCL_class_points2image_main_param_6+40];
	ld.param.f64 	%fd21, [SYCL_class_points2image_main_param_6+48];
	ld.param.f64 	%fd22, [SYCL_class_points2image_main_param_6+56];
	ld.param.f64 	%fd23, [SYCL_class_points2image_main_param_6+64];
	st.f64 	[%SP+272], %fd23;
	st.f64 	[%SP+264], %fd22;
	st.f64 	[%SP+256], %fd21;
	st.f64 	[%SP+248], %fd20;
	st.f64 	[%SP+240], %fd19;
	st.f64 	[%SP+232], %fd18;
	st.f64 	[%SP+224], %fd17;
	st.f64 	[%SP+216], %fd16;
	st.f64 	[%SP+208], %fd15;
	ld.param.f64 	%fd24, [SYCL_class_points2image_main_param_5];
	ld.param.f64 	%fd25, [SYCL_class_points2image_main_param_5+8];
	ld.param.f64 	%fd26, [SYCL_class_points2image_main_param_5+16];
	st.f64 	[%SP+296], %fd26;
	st.f64 	[%SP+288], %fd25;
	st.f64 	[%SP+280], %fd24;
	ld.param.u32 	%r28, [SYCL_class_points2image_main_param_4];
	ld.param.u32 	%r29, [SYCL_class_points2image_main_param_4+8];
	ld.param.u32 	%r30, [SYCL_class_points2image_main_param_4+12];
	ld.param.u32 	%r31, [SYCL_class_points2image_main_param_4+4];
	add.u64 	%rd30, %SP, 304;
	or.b64  	%rd31, %rd30, 4;
	st.u32 	[%rd31], %r31;
	st.u32 	[%SP+316], %r30;
	st.u32 	[%SP+312], %r29;
	st.u32 	[%SP+304], %r28;
	ld.param.u32 	%r32, [SYCL_class_points2image_main_param_3];
	ld.param.u32 	%r33, [SYCL_class_points2image_main_param_3+8];
	ld.param.u32 	%r34, [SYCL_class_points2image_main_param_3+12];
	ld.param.u32 	%r35, [SYCL_class_points2image_main_param_3+4];
	add.u64 	%rd32, %SP, 320;
	or.b64  	%rd33, %rd32, 4;
	st.u32 	[%rd33], %r35;
	st.u32 	[%SP+332], %r34;
	st.u32 	[%SP+328], %r33;
	st.u32 	[%SP+320], %r32;
	ld.param.u32 	%r36, [SYCL_class_points2image_main_param_2];
	ld.param.u32 	%r37, [SYCL_class_points2image_main_param_2+8];
	ld.param.u32 	%r38, [SYCL_class_points2image_main_param_2+12];
	ld.param.u32 	%r39, [SYCL_class_points2image_main_param_2+4];
	add.u64 	%rd34, %SP, 336;
	or.b64  	%rd35, %rd34, 4;
	st.u32 	[%rd35], %r39;
	st.u32 	[%SP+348], %r38;
	st.u32 	[%SP+344], %r37;
	st.u32 	[%SP+336], %r36;
	st.u32 	[%SP+496], %r1;
	st.u64 	[%SP+504], %rd2;
	st.u32 	[%SP+512], %r2;
	st.u32 	[%SP+516], %r3;
	st.u64 	[%SP+520], %rd10;
	st.u64 	[%SP+528], %rd14;
	ld.u32 	%r40, [%SP+496];
	st.u32 	[%SP+536], %r40;
	ld.u64 	%rd36, [%SP+504];
	st.u64 	[%SP+544], %rd36;
	add.u64 	%rd37, %SP, 536;
	add.s64 	%rd38, %rd37, 16;
	mov.u64 	%rd39, 16;
	{ // callseq 0, 0
	.reg .b32 temp_param_reg;
	.param .b64 param0;
	st.param.b64 	[param0+0], %rd38;
	.param .b64 param1;
	st.param.b64 	[param1+0], %rd34;
	.param .b64 param2;
	st.param.b64 	[param2+0], %rd39;
	call.uni 
	_ZN2cl4sycl6memcpyIccyEE__ns1vPcPKcy, 
	(
	param0, 
	param1, 
	param2
	);
	} // callseq 0
	add.s64 	%rd40, %rd37, 32;
	{ // callseq 1, 0
	.reg .b32 temp_param_reg;
	.param .b64 param0;
	st.param.b64 	[param0+0], %rd40;
	.param .b64 param1;
	st.param.b64 	[param1+0], %rd32;
	.param .b64 param2;
	st.param.b64 	[param2+0], %rd39;
	call.uni 
	_ZN2cl4sycl6memcpyIccyEE__ns1vPcPKcy, 
	(
	param0, 
	param1, 
	param2
	);
	} // callseq 1
	add.s64 	%rd41, %rd37, 48;
	{ // callseq 2, 0
	.reg .b32 temp_param_reg;
	.param .b64 param0;
	st.param.b64 	[param0+0], %rd41;
	.param .b64 param1;
	st.param.b64 	[param1+0], %rd30;
	.param .b64 param2;
	st.param.b64 	[param2+0], %rd39;
	call.uni 
	_ZN2cl4sycl6memcpyIccyEE__ns1vPcPKcy, 
	(
	param0, 
	param1, 
	param2
	);
	} // callseq 2
	add.s64 	%rd42, %rd37, 64;
	add.u64 	%rd43, %SP, 280;
	mov.u64 	%rd44, 24;
	{ // callseq 3, 0
	.reg .b32 temp_param_reg;
	.param .b64 param0;
	st.param.b64 	[param0+0], %rd42;
	.param .b64 param1;
	st.param.b64 	[param1+0], %rd43;
	.param .b64 param2;
	st.param.b64 	[param2+0], %rd44;
	call.uni 
	_ZN2cl4sycl6memcpyIccyEE__ns1vPcPKcy, 
	(
	param0, 
	param1, 
	param2
	);
	} // callseq 3
	add.s64 	%rd45, %rd37, 88;
	add.u64 	%rd46, %SP, 208;
	mov.u64 	%rd47, 72;
	{ // callseq 4, 0
	.reg .b32 temp_param_reg;
	.param .b64 param0;
	st.param.b64 	[param0+0], %rd45;
	.param .b64 param1;
	st.param.b64 	[param1+0], %rd46;
	.param .b64 param2;
	st.param.b64 	[param2+0], %rd47;
	call.uni 
	_ZN2cl4sycl6memcpyIccyEE__ns1vPcPKcy, 
	(
	param0, 
	param1, 
	param2
	);
	} // callseq 4
	add.s64 	%rd48, %rd37, 160;
	add.u64 	%rd49, %SP, 168;
	mov.u64 	%rd50, 40;
	{ // callseq 5, 0
	.reg .b32 temp_param_reg;
	.param .b64 param0;
	st.param.b64 	[param0+0], %rd48;
	.param .b64 param1;
	st.param.b64 	[param1+0], %rd49;
	.param .b64 param2;
	st.param.b64 	[param2+0], %rd50;
	call.uni 
	_ZN2cl4sycl6memcpyIccyEE__ns1vPcPKcy, 
	(
	param0, 
	param1, 
	param2
	);
	} // callseq 5
	add.s64 	%rd51, %rd37, 200;
	add.u64 	%rd52, %SP, 96;
	{ // callseq 6, 0
	.reg .b32 temp_param_reg;
	.param .b64 param0;
	st.param.b64 	[param0+0], %rd51;
	.param .b64 param1;
	st.param.b64 	[param1+0], %rd52;
	.param .b64 param2;
	st.param.b64 	[param2+0], %rd47;
	call.uni 
	_ZN2cl4sycl6memcpyIccyEE__ns1vPcPKcy, 
	(
	param0, 
	param1, 
	param2
	);
	} // callseq 6
	ld.u32 	%r41, [%SP+512];
	st.u32 	[%SP+808], %r41;
	ld.u32 	%r42, [%SP+516];
	st.u32 	[%SP+812], %r42;
	ld.u64 	%rd53, [%SP+520];
	st.u64 	[%SP+816], %rd53;
	add.s64 	%rd54, %rd37, 288;
	{ // callseq 7, 0
	.reg .b32 temp_param_reg;
	.param .b64 param0;
	st.param.b64 	[param0+0], %rd54;
	.param .b64 param1;
	st.param.b64 	[param1+0], %rd28;
	.param .b64 param2;
	st.param.b64 	[param2+0], %rd39;
	call.uni 
	_ZN2cl4sycl6memcpyIccyEE__ns1vPcPKcy, 
	(
	param0, 
	param1, 
	param2
	);
	} // callseq 7
	add.s64 	%rd55, %rd37, 304;
	{ // callseq 8, 0
	.reg .b32 temp_param_reg;
	.param .b64 param0;
	st.param.b64 	[param0+0], %rd55;
	.param .b64 param1;
	st.param.b64 	[param1+0], %rd26;
	.param .b64 param2;
	st.param.b64 	[param2+0], %rd39;
	call.uni 
	_ZN2cl4sycl6memcpyIccyEE__ns1vPcPKcy, 
	(
	param0, 
	param1, 
	param2
	);
	} // callseq 8
	add.s64 	%rd56, %rd37, 320;
	{ // callseq 9, 0
	.reg .b32 temp_param_reg;
	.param .b64 param0;
	st.param.b64 	[param0+0], %rd56;
	.param .b64 param1;
	st.param.b64 	[param1+0], %rd24;
	.param .b64 param2;
	st.param.b64 	[param2+0], %rd39;
	call.uni 
	_ZN2cl4sycl6memcpyIccyEE__ns1vPcPKcy, 
	(
	param0, 
	param1, 
	param2
	);
	} // callseq 9
	ld.u64 	%rd57, [%SP+528];
	st.u64 	[%SP+872], %rd57;
	add.s64 	%rd58, %rd37, 344;
	{ // callseq 10, 0
	.reg .b32 temp_param_reg;
	.param .b64 param0;
	st.param.b64 	[param0+0], %rd58;
	.param .b64 param1;
	st.param.b64 	[param1+0], %rd22;
	.param .b64 param2;
	st.param.b64 	[param2+0], %rd39;
	call.uni 
	_ZN2cl4sycl6memcpyIccyEE__ns1vPcPKcy, 
	(
	param0, 
	param1, 
	param2
	);
	} // callseq 10
	add.s64 	%rd59, %rd37, 360;
	{ // callseq 11, 0
	.reg .b32 temp_param_reg;
	.param .b64 param0;
	st.param.b64 	[param0+0], %rd59;
	.param .b64 param1;
	st.param.b64 	[param1+0], %rd20;
	.param .b64 param2;
	st.param.b64 	[param2+0], %rd39;
	call.uni 
	_ZN2cl4sycl6memcpyIccyEE__ns1vPcPKcy, 
	(
	param0, 
	param1, 
	param2
	);
	} // callseq 11
	add.s64 	%rd60, %rd37, 376;
	{ // callseq 12, 0
	.reg .b32 temp_param_reg;
	.param .b64 param0;
	st.param.b64 	[param0+0], %rd60;
	.param .b64 param1;
	st.param.b64 	[param1+0], %rd18;
	.param .b64 param2;
	st.param.b64 	[param2+0], %rd39;
	call.uni 
	_ZN2cl4sycl6memcpyIccyEE__ns1vPcPKcy, 
	(
	param0, 
	param1, 
	param2
	);
	} // callseq 12
	mov.u32 	%r43, 0;
	{ // callseq 13, 0
	.reg .b32 temp_param_reg;
	.param .b32 param0;
	st.param.b32 	[param0+0], %r43;
	.param .b64 retval0;
	call.uni (retval0), 
	_ZN2cl4sycl6detail13get_global_idE__ns1j, 
	(
	param0
	);
	ld.param.b64 	%rd61, [retval0+0];
	} // callseq 13
	mov.u32 	%r44, 1;
	{ // callseq 14, 0
	.reg .b32 temp_param_reg;
	.param .b32 param0;
	st.param.b32 	[param0+0], %r44;
	.param .b64 retval0;
	call.uni (retval0), 
	_ZN2cl4sycl6detail13get_global_idE__ns1j, 
	(
	param0
	);
	ld.param.b64 	%rd62, [retval0+0];
	} // callseq 14
	mov.u32 	%r45, 2;
	{ // callseq 15, 0
	.reg .b32 temp_param_reg;
	.param .b32 param0;
	st.param.b32 	[param0+0], %r45;
	.param .b64 retval0;
	call.uni (retval0), 
	_ZN2cl4sycl6detail13get_global_idE__ns1j, 
	(
	param0
	);
	ld.param.b64 	%rd63, [retval0+0];
	} // callseq 15
	add.u64 	%rd64, %SP, 928;
	{ // callseq 16, 0
	.reg .b32 temp_param_reg;
	.param .b64 param0;
	st.param.b64 	[param0+0], %rd64;
	.param .b64 param1;
	st.param.b64 	[param1+0], %rd61;
	.param .b64 param2;
	st.param.b64 	[param2+0], %rd62;
	.param .b64 param3;
	st.param.b64 	[param3+0], %rd63;
	call.uni 
	_ZN2cl4sycl6detail11index_arrayC2E__ns1mmm, 
	(
	param0, 
	param1, 
	param2, 
	param3
	);
	} // callseq 16
	{ // callseq 17, 0
	.reg .b32 temp_param_reg;
	.param .b32 param0;
	st.param.b32 	[param0+0], %r43;
	.param .b64 retval0;
	call.uni (retval0), 
	_ZN2cl4sycl6detail15get_global_sizeE__ns1j, 
	(
	param0
	);
	ld.param.b64 	%rd65, [retval0+0];
	} // callseq 17
	{ // callseq 18, 0
	.reg .b32 temp_param_reg;
	.param .b32 param0;
	st.param.b32 	[param0+0], %r44;
	.param .b64 retval0;
	call.uni (retval0), 
	_ZN2cl4sycl6detail15get_global_sizeE__ns1j, 
	(
	param0
	);
	ld.param.b64 	%rd66, [retval0+0];
	} // callseq 18
	{ // callseq 19, 0
	.reg .b32 temp_param_reg;
	.param .b32 param0;
	st.param.b32 	[param0+0], %r45;
	.param .b64 retval0;
	call.uni (retval0), 
	_ZN2cl4sycl6detail15get_global_sizeE__ns1j, 
	(
	param0
	);
	ld.param.b64 	%rd67, [retval0+0];
	} // callseq 19
	add.u64 	%rd68, %SP, 952;
	{ // callseq 20, 0
	.reg .b32 temp_param_reg;
	.param .b64 param0;
	st.param.b64 	[param0+0], %rd68;
	.param .b64 param1;
	st.param.b64 	[param1+0], %rd65;
	.param .b64 param2;
	st.param.b64 	[param2+0], %rd66;
	.param .b64 param3;
	st.param.b64 	[param3+0], %rd67;
	call.uni 
	_ZN2cl4sycl6detail11index_arrayC2E__ns1mmm, 
	(
	param0, 
	param1, 
	param2, 
	param3
	);
	} // callseq 20
	add.u64 	%rd69, %SP, 1056;
	{ // callseq 21, 0
	.reg .b32 temp_param_reg;
	.param .b64 param0;
	st.param.b64 	[param0+0], %rd69;
	.param .b64 param1;
	st.param.b64 	[param1+0], %rd64;
	.param .b64 param2;
	st.param.b64 	[param2+0], %rd44;
	call.uni 
	_ZN2cl4sycl6memcpyIccyEE__ns1vPcPKcy, 
	(
	param0, 
	param1, 
	param2
	);
	} // callseq 21
	add.u64 	%rd70, %SP, 1080;
	{ // callseq 22, 0
	.reg .b32 temp_param_reg;
	.param .b64 param0;
	st.param.b64 	[param0+0], %rd70;
	.param .b64 param1;
	st.param.b64 	[param1+0], %rd68;
	.param .b64 param2;
	st.param.b64 	[param2+0], %rd44;
	call.uni 
	_ZN2cl4sycl6memcpyIccyEE__ns1vPcPKcy, 
	(
	param0, 
	param1, 
	param2
	);
	} // callseq 22
	ld.u64 	%rd71, [%SP+1056];
	ld.u64 	%rd72, [%SP+1064];
	ld.u64 	%rd73, [%SP+1072];
	ld.u64 	%rd74, [%SP+1080];
	ld.u64 	%rd75, [%SP+1088];
	ld.u64 	%rd76, [%SP+1096];
	add.u64 	%rd77, %SP, 976;
	{ // callseq 23, 0
	.reg .b32 temp_param_reg;
	.param .b64 param0;
	st.param.b64 	[param0+0], %rd77;
	.param .align 8 .b8 param1[24];
	st.param.b64 	[param1+0], %rd71;
	st.param.b64 	[param1+8], %rd72;
	st.param.b64 	[param1+16], %rd73;
	.param .align 8 .b8 param2[24];
	st.param.b64 	[param2+0], %rd74;
	st.param.b64 	[param2+8], %rd75;
	st.param.b64 	[param2+16], %rd76;
	call.uni 
	_ZN2cl4sycl6detail9item_baseC2E__ns1NS1_11index_arrayES3_, 
	(
	param0, 
	param1, 
	param2
	);
	} // callseq 23
	add.u64 	%rd78, %SP, 1104;
	{ // callseq 24, 0
	.reg .b32 temp_param_reg;
	.param .b64 param0;
	st.param.b64 	[param0+0], %rd78;
	.param .b64 param1;
	st.param.b64 	[param1+0], %rd77;
	call.uni 
	_ZN2cl4sycl2idILi1EEC2E__ns1RKNS0_6detail9item_baseE, 
	(
	param0, 
	param1
	);
	} // callseq 24
	add.u64 	%rd79, %SP, 472;
	{ // callseq 25, 0
	.reg .b32 temp_param_reg;
	.param .b64 param0;
	st.param.b64 	[param0+0], %rd79;
	.param .b64 param1;
	st.param.b64 	[param1+0], %rd78;
	.param .b64 param2;
	st.param.b64 	[param2+0], %rd44;
	call.uni 
	_ZN2cl4sycl6memcpyIccyEE__ns1vPcPKcy, 
	(
	param0, 
	param1, 
	param2
	);
	} // callseq 25
	st.u64 	[%SP+352], %rd37;
	ld.u64 	%rd1, [%SP+352];
	{ // callseq 26, 0
	.reg .b32 temp_param_reg;
	.param .b64 param0;
	st.param.b64 	[param0+0], %rd79;
	.param .b32 param1;
	st.param.b32 	[param1+0], %r43;
	.param .b64 retval0;
	call.uni (retval0), 
	_ZNK2cl4sycl6detail16index_array_base3getE__ns1j, 
	(
	param0, 
	param1
	);
	ld.param.b64 	%rd80, [retval0+0];
	} // callseq 26
	shl.b64 	%rd81, %rd80, 1;
	st.u32 	[%SP+360], %rd81;
	{ // callseq 27, 0
	.reg .b32 temp_param_reg;
	.param .b64 param0;
	st.param.b64 	[param0+0], %rd79;
	.param .b32 param1;
	st.param.b32 	[param1+0], %r43;
	.param .b64 retval0;
	call.uni (retval0), 
	_ZNK2cl4sycl6detail16index_array_base3getE__ns1j, 
	(
	param0, 
	param1
	);
	ld.param.b64 	%rd82, [retval0+0];
	} // callseq 27
	ld.u32 	%rd83, [%rd1];
	mul.lo.s64 	%rd84, %rd82, %rd83;
	st.u32 	[%SP+364], %rd84;
	add.s64 	%rd85, %rd1, 8;
	ld.s32 	%rd86, [%SP+364];
	{ // callseq 28, 0
	.reg .b32 temp_param_reg;
	.param .b64 param0;
	st.param.b64 	[param0+0], %rd85;
	.param .b64 param1;
	st.param.b64 	[param1+0], %rd86;
	.param .b32 retval0;
	call.uni (retval0), 
	_ZNK2cl4sycl6detail15accessor_commonIfLi1ELNS0_6access4modeE0ELNS3_6targetE1ELNS3_11placeholderE0EEixIfvEE__ns1fm, 
	(
	param0, 
	param1
	);
	ld.param.f32 	%f1, [retval0+0];
	} // callseq 28
	cvt.f64.f32 	%fd27, %f1;
	st.f64 	[%SP+368], %fd27;
	ld.u32 	%r46, [%SP+364];
	add.s32 	%r47, %r46, 1;
	cvt.s64.s32 	%rd87, %r47;
	{ // callseq 29, 0
	.reg .b32 temp_param_reg;
	.param .b64 param0;
	st.param.b64 	[param0+0], %rd85;
	.param .b64 param1;
	st.param.b64 	[param1+0], %rd87;
	.param .b32 retval0;
	call.uni (retval0), 
	_ZNK2cl4sycl6detail15accessor_commonIfLi1ELNS0_6access4modeE0ELNS3_6targetE1ELNS3_11placeholderE0EEixIfvEE__ns1fm, 
	(
	param0, 
	param1
	);
	ld.param.f32 	%f2, [retval0+0];
	} // callseq 29
	cvt.f64.f32 	%fd28, %f2;
	st.f64 	[%SP+376], %fd28;
	ld.u32 	%r48, [%SP+364];
	add.s32 	%r49, %r48, 2;
	cvt.s64.s32 	%rd88, %r49;
	{ // callseq 30, 0
	.reg .b32 temp_param_reg;
	.param .b64 param0;
	st.param.b64 	[param0+0], %rd85;
	.param .b64 param1;
	st.param.b64 	[param1+0], %rd88;
	.param .b32 retval0;
	call.uni (retval0), 
	_ZNK2cl4sycl6detail15accessor_commonIfLi1ELNS0_6access4modeE0ELNS3_6targetE1ELNS3_11placeholderE0EEixIfvEE__ns1fm, 
	(
	param0, 
	param1
	);
	ld.param.f32 	%f3, [retval0+0];
	} // callseq 30
	cvt.f64.f32 	%fd29, %f3;
	st.f64 	[%SP+384], %fd29;
	ld.u32 	%r50, [%SP+364];
	add.s32 	%r51, %r50, 4;
	cvt.s64.s32 	%rd89, %r51;
	{ // callseq 31, 0
	.reg .b32 temp_param_reg;
	.param .b64 param0;
	st.param.b64 	[param0+0], %rd85;
	.param .b64 param1;
	st.param.b64 	[param1+0], %rd89;
	.param .b32 retval0;
	call.uni (retval0), 
	_ZNK2cl4sycl6detail15accessor_commonIfLi1ELNS0_6access4modeE0ELNS3_6targetE1ELNS3_11placeholderE0EEixIfvEE__ns1fm, 
	(
	param0, 
	param1
	);
	ld.param.f32 	%f4, [retval0+0];
	} // callseq 31
	st.f32 	[%SP+416], %f4;
	st.u32 	[%SP+420], %r43;
	bra.uni 	LBB6_1;
LBB6_1:                                 // =>This Loop Header: Depth=1
                                        //     Child Loop BB6_3 Depth 2
	ld.u32 	%r52, [%SP+420];
	setp.gt.s32 	%p1, %r52, 2;
	@%p1 bra 	LBB6_6;
	bra.uni 	LBB6_2;
LBB6_2:                                 //   in Loop: Header=BB6_1 Depth=1
	ld.s32 	%rd110, [%SP+420];
	shl.b64 	%rd111, %rd110, 3;
	add.s64 	%rd112, %rd1, %rd111;
	ld.f64 	%fd101, [%rd112+64];
	add.u64 	%rd113, %SP, 392;
	add.s64 	%rd114, %rd113, %rd111;
	st.f64 	[%rd114], %fd101;
	mov.u32 	%r73, 0;
	st.u32 	[%SP+424], %r73;
	bra.uni 	LBB6_3;
LBB6_3:                                 //   Parent Loop BB6_1 Depth=1
                                        // =>  This Inner Loop Header: Depth=2
	ld.u32 	%r74, [%SP+424];
	setp.gt.s32 	%p7, %r74, 2;
	@%p7 bra 	LBB6_5;
	bra.uni 	LBB6_4;
LBB6_4:                                 //   in Loop: Header=BB6_3 Depth=2
	ld.u32 	%r77, [%SP+424];
	cvt.s64.s32 	%rd115, %r77;
	shl.b64 	%rd116, %rd115, 3;
	add.u64 	%rd117, %SP, 368;
	add.s64 	%rd118, %rd117, %rd116;
	ld.f64 	%fd102, [%rd118];
	ld.u32 	%r78, [%SP+420];
	mul.lo.s32 	%r79, %r78, 3;
	add.s32 	%r80, %r79, %r77;
	cvt.s64.s32 	%rd119, %r80;
	shl.b64 	%rd120, %rd119, 3;
	add.s64 	%rd121, %rd1, %rd120;
	ld.f64 	%fd103, [%rd121+88];
	mul.rn.f64 	%fd104, %fd102, %fd103;
	cvt.s64.s32 	%rd122, %r78;
	shl.b64 	%rd123, %rd122, 3;
	add.u64 	%rd124, %SP, 392;
	add.s64 	%rd125, %rd124, %rd123;
	ld.f64 	%fd105, [%rd125];
	add.rn.f64 	%fd106, %fd105, %fd104;
	st.f64 	[%rd125], %fd106;
	ld.u32 	%r81, [%SP+424];
	add.s32 	%r82, %r81, 1;
	st.u32 	[%SP+424], %r82;
	bra.uni 	LBB6_3;
LBB6_5:                                 //   in Loop: Header=BB6_1 Depth=1
	ld.u32 	%r75, [%SP+420];
	add.s32 	%r76, %r75, 1;
	st.u32 	[%SP+420], %r76;
	bra.uni 	LBB6_1;
LBB6_6:
	ld.f64 	%fd30, [%SP+408];
	setp.leu.f64 	%p2, %fd30, 0d4004000000000000;
	@%p2 bra 	LBB6_14;
	bra.uni 	LBB6_7;
LBB6_7:
	ld.f64 	%fd31, [%SP+408];
	ld.f64 	%fd32, [%SP+392];
	div.rn.f64 	%fd33, %fd32, %fd31;
	st.f64 	[%SP+392], %fd33;
	ld.f64 	%fd34, [%SP+408];
	ld.f64 	%fd35, [%SP+400];
	div.rn.f64 	%fd36, %fd35, %fd34;
	st.f64 	[%SP+400], %fd36;
	ld.f64 	%fd37, [%SP+392];
	mul.rn.f64 	%fd38, %fd37, %fd37;
	ld.f64 	%fd39, [%SP+400];
	mul.rn.f64 	%fd40, %fd39, %fd39;
	add.rn.f64 	%fd41, %fd38, %fd40;
	st.f64 	[%SP+432], %fd41;
	ld.f64 	%fd42, [%rd1+160];
	ld.f64 	%fd43, [%SP+432];
	mul.rn.f64 	%fd44, %fd42, %fd43;
	add.rn.f64 	%fd45, %fd44, 0d3FF0000000000000;
	ld.f64 	%fd46, [%rd1+168];
	mul.rn.f64 	%fd47, %fd46, %fd43;
	mul.rn.f64 	%fd48, %fd47, %fd43;
	add.rn.f64 	%fd49, %fd45, %fd48;
	ld.f64 	%fd50, [%rd1+192];
	mul.rn.f64 	%fd51, %fd50, %fd43;
	mul.rn.f64 	%fd52, %fd51, %fd43;
	mul.rn.f64 	%fd53, %fd52, %fd43;
	add.rn.f64 	%fd54, %fd49, %fd53;
	st.f64 	[%SP+440], %fd54;
	ld.f64 	%fd55, [%SP+392];
	ld.f64 	%fd56, [%SP+440];
	mul.rn.f64 	%fd57, %fd55, %fd56;
	ld.f64 	%fd58, [%rd1+176];
	add.rn.f64 	%fd59, %fd58, %fd58;
	mul.rn.f64 	%fd60, %fd59, %fd55;
	ld.f64 	%fd61, [%SP+400];
	mul.rn.f64 	%fd62, %fd60, %fd61;
	add.rn.f64 	%fd63, %fd57, %fd62;
	ld.f64 	%fd64, [%rd1+184];
	ld.f64 	%fd65, [%SP+432];
	add.rn.f64 	%fd66, %fd55, %fd55;
	mul.rn.f64 	%fd67, %fd66, %fd55;
	add.rn.f64 	%fd68, %fd65, %fd67;
	mul.rn.f64 	%fd69, %fd64, %fd68;
	add.rn.f64 	%fd70, %fd63, %fd69;
	st.f64 	[%SP+448], %fd70;
	ld.f64 	%fd71, [%SP+400];
	ld.f64 	%fd72, [%SP+440];
	mul.rn.f64 	%fd73, %fd71, %fd72;
	ld.f64 	%fd74, [%rd1+184];
	add.rn.f64 	%fd75, %fd74, %fd74;
	ld.f64 	%fd76, [%SP+392];
	mul.rn.f64 	%fd77, %fd75, %fd76;
	mul.rn.f64 	%fd78, %fd77, %fd71;
	add.rn.f64 	%fd79, %fd73, %fd78;
	ld.f64 	%fd80, [%rd1+176];
	ld.f64 	%fd81, [%SP+432];
	add.rn.f64 	%fd82, %fd71, %fd71;
	mul.rn.f64 	%fd83, %fd82, %fd71;
	add.rn.f64 	%fd84, %fd81, %fd83;
	mul.rn.f64 	%fd85, %fd80, %fd84;
	add.rn.f64 	%fd86, %fd79, %fd85;
	st.f64 	[%SP+456], %fd86;
	ld.f64 	%fd87, [%rd1+200];
	ld.f64 	%fd88, [%SP+448];
	mul.rn.f64 	%fd89, %fd87, %fd88;
	ld.f64 	%fd90, [%rd1+216];
	add.rn.f64 	%fd91, %fd89, %fd90;
	add.rn.f64 	%fd92, %fd91, 0d3FE0000000000000;
	cvt.rzi.s32.f64 	%r56, %fd92;
	st.u32 	[%SP+464], %r56;
	ld.f64 	%fd93, [%rd1+232];
	ld.f64 	%fd94, [%SP+456];
	mul.rn.f64 	%fd95, %fd93, %fd94;
	ld.f64 	%fd96, [%rd1+240];
	add.rn.f64 	%fd97, %fd95, %fd96;
	add.rn.f64 	%fd98, %fd97, 0d3FE0000000000000;
	cvt.rzi.s32.f64 	%r57, %fd98;
	st.u32 	[%SP+468], %r57;
	ld.u32 	%r58, [%SP+464];
	setp.lt.s32 	%p3, %r58, 0;
	@%p3 bra 	LBB6_12;
	bra.uni 	LBB6_8;
LBB6_8:
	ld.u32 	%r59, [%SP+464];
	ld.u32 	%r60, [%rd1+272];
	setp.ge.s32 	%p4, %r59, %r60;
	@%p4 bra 	LBB6_12;
	bra.uni 	LBB6_9;
LBB6_9:
	ld.u32 	%r61, [%SP+468];
	setp.lt.s32 	%p5, %r61, 0;
	@%p5 bra 	LBB6_12;
	bra.uni 	LBB6_10;
LBB6_10:
	ld.u32 	%r62, [%SP+468];
	ld.u32 	%r63, [%rd1+276];
	setp.ge.s32 	%p6, %r62, %r63;
	@%p6 bra 	LBB6_12;
	bra.uni 	LBB6_11;
LBB6_11:
	ld.u32 	%r67, [%SP+464];
	add.s64 	%rd100, %rd1, 280;
	ld.s32 	%rd101, [%SP+360];
	{ // callseq 36, 0
	.reg .b32 temp_param_reg;
	.param .b64 param0;
	st.param.b64 	[param0+0], %rd100;
	.param .b64 param1;
	st.param.b64 	[param1+0], %rd101;
	.param .b64 retval0;
	call.uni (retval0), 
	_ZNK2cl4sycl6detail15accessor_commonIiLi1ELNS0_6access4modeE1ELNS3_6targetE1ELNS3_11placeholderE0EEixIivEE__ns1RU3AS1im, 
	(
	param0, 
	param1
	);
	ld.param.b64 	%rd102, [retval0+0];
	} // callseq 36
	st.global.u32 	[%rd102], %r67;
	ld.u32 	%r68, [%SP+468];
	ld.u32 	%r69, [%SP+360];
	add.s32 	%r70, %r69, 1;
	cvt.s64.s32 	%rd103, %r70;
	{ // callseq 37, 0
	.reg .b32 temp_param_reg;
	.param .b64 param0;
	st.param.b64 	[param0+0], %rd100;
	.param .b64 param1;
	st.param.b64 	[param1+0], %rd103;
	.param .b64 retval0;
	call.uni (retval0), 
	_ZNK2cl4sycl6detail15accessor_commonIiLi1ELNS0_6access4modeE1ELNS3_6targetE1ELNS3_11placeholderE0EEixIivEE__ns1RU3AS1im, 
	(
	param0, 
	param1
	);
	ld.param.b64 	%rd104, [retval0+0];
	} // callseq 37
	st.global.u32 	[%rd104], %r68;
	ld.f64 	%fd99, [%SP+408];
	mul.rn.f64 	%fd100, %fd99, 0d4059000000000000;
	cvt.rn.f32.f64 	%f5, %fd100;
	add.s64 	%rd105, %rd1, 336;
	ld.s32 	%rd106, [%SP+360];
	{ // callseq 38, 0
	.reg .b32 temp_param_reg;
	.param .b64 param0;
	st.param.b64 	[param0+0], %rd105;
	.param .b64 param1;
	st.param.b64 	[param1+0], %rd106;
	.param .b64 retval0;
	call.uni (retval0), 
	_ZNK2cl4sycl6detail15accessor_commonIfLi1ELNS0_6access4modeE1ELNS3_6targetE1ELNS3_11placeholderE0EEixIfvEE__ns1RU3AS1fm, 
	(
	param0, 
	param1
	);
	ld.param.b64 	%rd107, [retval0+0];
	} // callseq 38
	st.global.f32 	[%rd107], %f5;
	ld.f32 	%f6, [%SP+416];
	ld.u32 	%r71, [%SP+360];
	add.s32 	%r72, %r71, 1;
	cvt.s64.s32 	%rd108, %r72;
	{ // callseq 39, 0
	.reg .b32 temp_param_reg;
	.param .b64 param0;
	st.param.b64 	[param0+0], %rd105;
	.param .b64 param1;
	st.param.b64 	[param1+0], %rd108;
	.param .b64 retval0;
	call.uni (retval0), 
	_ZNK2cl4sycl6detail15accessor_commonIfLi1ELNS0_6access4modeE1ELNS3_6targetE1ELNS3_11placeholderE0EEixIfvEE__ns1RU3AS1fm, 
	(
	param0, 
	param1
	);
	ld.param.b64 	%rd109, [retval0+0];
	} // callseq 39
	st.global.f32 	[%rd109], %f6;
	bra.uni 	LBB6_13;
LBB6_12:
	add.s64 	%rd95, %rd1, 280;
	ld.s32 	%rd96, [%SP+360];
	{ // callseq 34, 0
	.reg .b32 temp_param_reg;
	.param .b64 param0;
	st.param.b64 	[param0+0], %rd95;
	.param .b64 param1;
	st.param.b64 	[param1+0], %rd96;
	.param .b64 retval0;
	call.uni (retval0), 
	_ZNK2cl4sycl6detail15accessor_commonIiLi1ELNS0_6access4modeE1ELNS3_6targetE1ELNS3_11placeholderE0EEixIivEE__ns1RU3AS1im, 
	(
	param0, 
	param1
	);
	ld.param.b64 	%rd97, [retval0+0];
	} // callseq 34
	mov.u32 	%r64, -2;
	st.global.u32 	[%rd97], %r64;
	ld.u32 	%r65, [%SP+360];
	add.s32 	%r66, %r65, 1;
	cvt.s64.s32 	%rd98, %r66;
	{ // callseq 35, 0
	.reg .b32 temp_param_reg;
	.param .b64 param0;
	st.param.b64 	[param0+0], %rd95;
	.param .b64 param1;
	st.param.b64 	[param1+0], %rd98;
	.param .b64 retval0;
	call.uni (retval0), 
	_ZNK2cl4sycl6detail15accessor_commonIiLi1ELNS0_6access4modeE1ELNS3_6targetE1ELNS3_11placeholderE0EEixIivEE__ns1RU3AS1im, 
	(
	param0, 
	param1
	);
	ld.param.b64 	%rd99, [retval0+0];
	} // callseq 35
	st.global.u32 	[%rd99], %r64;
	bra.uni 	LBB6_13;
LBB6_13:
	bra.uni 	LBB6_15;
LBB6_14:
	add.s64 	%rd90, %rd1, 280;
	ld.s32 	%rd91, [%SP+360];
	{ // callseq 32, 0
	.reg .b32 temp_param_reg;
	.param .b64 param0;
	st.param.b64 	[param0+0], %rd90;
	.param .b64 param1;
	st.param.b64 	[param1+0], %rd91;
	.param .b64 retval0;
	call.uni (retval0), 
	_ZNK2cl4sycl6detail15accessor_commonIiLi1ELNS0_6access4modeE1ELNS3_6targetE1ELNS3_11placeholderE0EEixIivEE__ns1RU3AS1im, 
	(
	param0, 
	param1
	);
	ld.param.b64 	%rd92, [retval0+0];
	} // callseq 32
	mov.u32 	%r53, -1;
	st.global.u32 	[%rd92], %r53;
	ld.u32 	%r54, [%SP+360];
	add.s32 	%r55, %r54, 1;
	cvt.s64.s32 	%rd93, %r55;
	{ // callseq 33, 0
	.reg .b32 temp_param_reg;
	.param .b64 param0;
	st.param.b64 	[param0+0], %rd90;
	.param .b64 param1;
	st.param.b64 	[param1+0], %rd93;
	.param .b64 retval0;
	call.uni (retval0), 
	_ZNK2cl4sycl6detail15accessor_commonIiLi1ELNS0_6access4modeE1ELNS3_6targetE1ELNS3_11placeholderE0EEixIivEE__ns1RU3AS1im, 
	(
	param0, 
	param1
	);
	ld.param.b64 	%rd94, [retval0+0];
	} // callseq 33
	st.global.u32 	[%rd94], %r53;
	bra.uni 	LBB6_15;
LBB6_15:
	ret;
}
                                        // -- End function
	// .globl	_ZN2cl4sycl6detail11index_arrayC2E__ns1mmm // -- Begin function _ZN2cl4sycl6detail11index_arrayC2E__ns1mmm
.func _ZN2cl4sycl6detail11index_arrayC2E__ns1mmm(
	.param .b64 _ZN2cl4sycl6detail11index_arrayC2E__ns1mmm_param_0,
	.param .b64 _ZN2cl4sycl6detail11index_arrayC2E__ns1mmm_param_1,
	.param .b64 _ZN2cl4sycl6detail11index_arrayC2E__ns1mmm_param_2,
	.param .b64 _ZN2cl4sycl6detail11index_arrayC2E__ns1mmm_param_3
)                                       // @_ZN2cl4sycl6detail11index_arrayC2E__ns1mmm
{
	.local .align 8 .b8 	__local_depot7[32];
	.reg .b64 	%SP;
	.reg .b64 	%SPL;
	.reg .b64 	%rd<9>;

// %bb.0:
	mov.u64 	%SPL, __local_depot7;
	cvta.local.u64 	%SP, %SPL;
	ld.param.u64 	%rd4, [_ZN2cl4sycl6detail11index_arrayC2E__ns1mmm_param_3];
	ld.param.u64 	%rd3, [_ZN2cl4sycl6detail11index_arrayC2E__ns1mmm_param_2];
	ld.param.u64 	%rd2, [_ZN2cl4sycl6detail11index_arrayC2E__ns1mmm_param_1];
	ld.param.u64 	%rd1, [_ZN2cl4sycl6detail11index_arrayC2E__ns1mmm_param_0];
	st.u64 	[%SP+0], %rd1;
	st.u64 	[%SP+8], %rd2;
	st.u64 	[%SP+16], %rd3;
	st.u64 	[%SP+24], %rd4;
	ld.u64 	%rd5, [%SP+0];
	ld.u64 	%rd6, [%SP+8];
	st.u64 	[%rd5], %rd6;
	ld.u64 	%rd7, [%SP+16];
	st.u64 	[%rd5+8], %rd7;
	ld.u64 	%rd8, [%SP+24];
	st.u64 	[%rd5+16], %rd8;
	ret;
}
                                        // -- End function
	// .globl	_ZN2cl4sycl6detail9item_baseC2E__ns1NS1_11index_arrayES3_ // -- Begin function _ZN2cl4sycl6detail9item_baseC2E__ns1NS1_11index_arrayES3_
.func _ZN2cl4sycl6detail9item_baseC2E__ns1NS1_11index_arrayES3_(
	.param .b64 _ZN2cl4sycl6detail9item_baseC2E__ns1NS1_11index_arrayES3__param_0,
	.param .align 8 .b8 _ZN2cl4sycl6detail9item_baseC2E__ns1NS1_11index_arrayES3__param_1[24],
	.param .align 8 .b8 _ZN2cl4sycl6detail9item_baseC2E__ns1NS1_11index_arrayES3__param_2[24]
)                                       // @_ZN2cl4sycl6detail9item_baseC2E__ns1NS1_11index_arrayES3_
{
	.local .align 8 .b8 	__local_depot8[128];
	.reg .b64 	%SP;
	.reg .b64 	%SPL;
	.reg .b64 	%rd<27>;

// %bb.0:
	mov.u64 	%SPL, __local_depot8;
	cvta.local.u64 	%SP, %SPL;
	mov.b64 	%rd3, _ZN2cl4sycl6detail9item_baseC2E__ns1NS1_11index_arrayES3__param_2;
	mov.b64 	%rd2, _ZN2cl4sycl6detail9item_baseC2E__ns1NS1_11index_arrayES3__param_1;
	ld.param.u64 	%rd1, [_ZN2cl4sycl6detail9item_baseC2E__ns1NS1_11index_arrayES3__param_0];
	ld.param.u64 	%rd4, [_ZN2cl4sycl6detail9item_baseC2E__ns1NS1_11index_arrayES3__param_2];
	ld.param.u64 	%rd5, [_ZN2cl4sycl6detail9item_baseC2E__ns1NS1_11index_arrayES3__param_2+8];
	ld.param.u64 	%rd6, [_ZN2cl4sycl6detail9item_baseC2E__ns1NS1_11index_arrayES3__param_2+16];
	st.u64 	[%SP+16], %rd6;
	st.u64 	[%SP+8], %rd5;
	st.u64 	[%SP+0], %rd4;
	ld.param.u64 	%rd7, [_ZN2cl4sycl6detail9item_baseC2E__ns1NS1_11index_arrayES3__param_1];
	ld.param.u64 	%rd8, [_ZN2cl4sycl6detail9item_baseC2E__ns1NS1_11index_arrayES3__param_1+8];
	ld.param.u64 	%rd9, [_ZN2cl4sycl6detail9item_baseC2E__ns1NS1_11index_arrayES3__param_1+16];
	st.u64 	[%SP+40], %rd9;
	st.u64 	[%SP+32], %rd8;
	st.u64 	[%SP+24], %rd7;
	st.u64 	[%SP+48], %rd1;
	ld.u64 	%rd10, [%SP+48];
	add.u64 	%rd11, %SP, 56;
	add.u64 	%rd12, %SP, 24;
	mov.u64 	%rd13, 24;
	{ // callseq 40, 0
	.reg .b32 temp_param_reg;
	.param .b64 param0;
	st.param.b64 	[param0+0], %rd11;
	.param .b64 param1;
	st.param.b64 	[param1+0], %rd12;
	.param .b64 param2;
	st.param.b64 	[param2+0], %rd13;
	call.uni 
	_ZN2cl4sycl6memcpyIccyEE__ns1vPcPKcy, 
	(
	param0, 
	param1, 
	param2
	);
	} // callseq 40
	add.u64 	%rd14, %SP, 80;
	add.u64 	%rd15, %SP, 0;
	{ // callseq 41, 0
	.reg .b32 temp_param_reg;
	.param .b64 param0;
	st.param.b64 	[param0+0], %rd14;
	.param .b64 param1;
	st.param.b64 	[param1+0], %rd15;
	.param .b64 param2;
	st.param.b64 	[param2+0], %rd13;
	call.uni 
	_ZN2cl4sycl6memcpyIccyEE__ns1vPcPKcy, 
	(
	param0, 
	param1, 
	param2
	);
	} // callseq 41
	add.u64 	%rd16, %SP, 104;
	mov.u64 	%rd17, 0;
	{ // callseq 42, 0
	.reg .b32 temp_param_reg;
	.param .b64 param0;
	st.param.b64 	[param0+0], %rd16;
	.param .b64 param1;
	st.param.b64 	[param1+0], %rd17;
	.param .b64 param2;
	st.param.b64 	[param2+0], %rd17;
	.param .b64 param3;
	st.param.b64 	[param3+0], %rd17;
	call.uni 
	_ZN2cl4sycl6detail11index_arrayC2E__ns1mmm, 
	(
	param0, 
	param1, 
	param2, 
	param3
	);
	} // callseq 42
	ld.u64 	%rd18, [%SP+56];
	ld.u64 	%rd19, [%SP+64];
	ld.u64 	%rd20, [%SP+72];
	ld.u64 	%rd21, [%SP+80];
	ld.u64 	%rd22, [%SP+88];
	ld.u64 	%rd23, [%SP+96];
	ld.u64 	%rd24, [%SP+104];
	ld.u64 	%rd25, [%SP+112];
	ld.u64 	%rd26, [%SP+120];
	{ // callseq 43, 0
	.reg .b32 temp_param_reg;
	.param .b64 param0;
	st.param.b64 	[param0+0], %rd10;
	.param .align 8 .b8 param1[24];
	st.param.b64 	[param1+0], %rd18;
	st.param.b64 	[param1+8], %rd19;
	st.param.b64 	[param1+16], %rd20;
	.param .align 8 .b8 param2[24];
	st.param.b64 	[param2+0], %rd21;
	st.param.b64 	[param2+8], %rd22;
	st.param.b64 	[param2+16], %rd23;
	.param .align 8 .b8 param3[24];
	st.param.b64 	[param3+0], %rd24;
	st.param.b64 	[param3+8], %rd25;
	st.param.b64 	[param3+16], %rd26;
	call.uni 
	_ZN2cl4sycl6detail9item_baseC2E__ns1NS1_11index_arrayES3_S3_, 
	(
	param0, 
	param1, 
	param2, 
	param3
	);
	} // callseq 43
	ret;
}
                                        // -- End function
	// .globl	_ZN2cl4sycl2idILi1EEC2E__ns1RKNS0_6detail9item_baseE // -- Begin function _ZN2cl4sycl2idILi1EEC2E__ns1RKNS0_6detail9item_baseE
.func _ZN2cl4sycl2idILi1EEC2E__ns1RKNS0_6detail9item_baseE(
	.param .b64 _ZN2cl4sycl2idILi1EEC2E__ns1RKNS0_6detail9item_baseE_param_0,
	.param .b64 _ZN2cl4sycl2idILi1EEC2E__ns1RKNS0_6detail9item_baseE_param_1
)                                       // @_ZN2cl4sycl2idILi1EEC2E__ns1RKNS0_6detail9item_baseE
{
	.local .align 8 .b8 	__local_depot9[16];
	.reg .b64 	%SP;
	.reg .b64 	%SPL;
	.reg .b32 	%r<4>;
	.reg .b64 	%rd<10>;

// %bb.0:
	mov.u64 	%SPL, __local_depot9;
	cvta.local.u64 	%SP, %SPL;
	ld.param.u64 	%rd2, [_ZN2cl4sycl2idILi1EEC2E__ns1RKNS0_6detail9item_baseE_param_1];
	ld.param.u64 	%rd1, [_ZN2cl4sycl2idILi1EEC2E__ns1RKNS0_6detail9item_baseE_param_0];
	st.u64 	[%SP+0], %rd1;
	st.u64 	[%SP+8], %rd2;
	ld.u64 	%rd3, [%SP+0];
	ld.u64 	%rd4, [%SP+8];
	mov.u32 	%r1, 0;
	{ // callseq 44, 0
	.reg .b32 temp_param_reg;
	.param .b64 param0;
	st.param.b64 	[param0+0], %rd4;
	.param .b32 param1;
	st.param.b32 	[param1+0], %r1;
	.param .b64 retval0;
	call.uni (retval0), 
	_ZNK2cl4sycl6detail9item_base6get_idE__ns1i, 
	(
	param0, 
	param1
	);
	ld.param.b64 	%rd5, [retval0+0];
	} // callseq 44
	ld.u64 	%rd6, [%SP+8];
	mov.u32 	%r2, 1;
	{ // callseq 45, 0
	.reg .b32 temp_param_reg;
	.param .b64 param0;
	st.param.b64 	[param0+0], %rd6;
	.param .b32 param1;
	st.param.b32 	[param1+0], %r2;
	.param .b64 retval0;
	call.uni (retval0), 
	_ZNK2cl4sycl6detail9item_base6get_idE__ns1i, 
	(
	param0, 
	param1
	);
	ld.param.b64 	%rd7, [retval0+0];
	} // callseq 45
	ld.u64 	%rd8, [%SP+8];
	mov.u32 	%r3, 2;
	{ // callseq 46, 0
	.reg .b32 temp_param_reg;
	.param .b64 param0;
	st.param.b64 	[param0+0], %rd8;
	.param .b32 param1;
	st.param.b32 	[param1+0], %r3;
	.param .b64 retval0;
	call.uni (retval0), 
	_ZNK2cl4sycl6detail9item_base6get_idE__ns1i, 
	(
	param0, 
	param1
	);
	ld.param.b64 	%rd9, [retval0+0];
	} // callseq 46
	{ // callseq 47, 0
	.reg .b32 temp_param_reg;
	.param .b64 param0;
	st.param.b64 	[param0+0], %rd3;
	.param .b64 param1;
	st.param.b64 	[param1+0], %rd5;
	.param .b64 param2;
	st.param.b64 	[param2+0], %rd7;
	.param .b64 param3;
	st.param.b64 	[param3+0], %rd9;
	call.uni 
	_ZN2cl4sycl6detail21index_array_operatorsILi1ENS0_2idEEC2E__ns1mmm, 
	(
	param0, 
	param1, 
	param2, 
	param3
	);
	} // callseq 47
	ret;
}
                                        // -- End function
	// .globl	_ZN2cl4sycl6detail9item_baseC2E__ns1NS1_11index_arrayES3_S3_ // -- Begin function _ZN2cl4sycl6detail9item_baseC2E__ns1NS1_11index_arrayES3_S3_
.func _ZN2cl4sycl6detail9item_baseC2E__ns1NS1_11index_arrayES3_S3_(
	.param .b64 _ZN2cl4sycl6detail9item_baseC2E__ns1NS1_11index_arrayES3_S3__param_0,
	.param .align 8 .b8 _ZN2cl4sycl6detail9item_baseC2E__ns1NS1_11index_arrayES3_S3__param_1[24],
	.param .align 8 .b8 _ZN2cl4sycl6detail9item_baseC2E__ns1NS1_11index_arrayES3_S3__param_2[24],
	.param .align 8 .b8 _ZN2cl4sycl6detail9item_baseC2E__ns1NS1_11index_arrayES3_S3__param_3[24]
)                                       // @_ZN2cl4sycl6detail9item_baseC2E__ns1NS1_11index_arrayES3_S3_
{
	.local .align 8 .b8 	__local_depot10[80];
	.reg .b64 	%SP;
	.reg .b64 	%SPL;
	.reg .b32 	%r<4>;
	.reg .b64 	%rd<34>;

// %bb.0:
	mov.u64 	%SPL, __local_depot10;
	cvta.local.u64 	%SP, %SPL;
	mov.b64 	%rd4, _ZN2cl4sycl6detail9item_baseC2E__ns1NS1_11index_arrayES3_S3__param_3;
	mov.b64 	%rd3, _ZN2cl4sycl6detail9item_baseC2E__ns1NS1_11index_arrayES3_S3__param_2;
	mov.b64 	%rd2, _ZN2cl4sycl6detail9item_baseC2E__ns1NS1_11index_arrayES3_S3__param_1;
	ld.param.u64 	%rd1, [_ZN2cl4sycl6detail9item_baseC2E__ns1NS1_11index_arrayES3_S3__param_0];
	ld.param.u64 	%rd5, [_ZN2cl4sycl6detail9item_baseC2E__ns1NS1_11index_arrayES3_S3__param_3];
	ld.param.u64 	%rd6, [_ZN2cl4sycl6detail9item_baseC2E__ns1NS1_11index_arrayES3_S3__param_3+8];
	ld.param.u64 	%rd7, [_ZN2cl4sycl6detail9item_baseC2E__ns1NS1_11index_arrayES3_S3__param_3+16];
	st.u64 	[%SP+16], %rd7;
	st.u64 	[%SP+8], %rd6;
	st.u64 	[%SP+0], %rd5;
	ld.param.u64 	%rd8, [_ZN2cl4sycl6detail9item_baseC2E__ns1NS1_11index_arrayES3_S3__param_2];
	ld.param.u64 	%rd9, [_ZN2cl4sycl6detail9item_baseC2E__ns1NS1_11index_arrayES3_S3__param_2+8];
	ld.param.u64 	%rd10, [_ZN2cl4sycl6detail9item_baseC2E__ns1NS1_11index_arrayES3_S3__param_2+16];
	st.u64 	[%SP+40], %rd10;
	st.u64 	[%SP+32], %rd9;
	st.u64 	[%SP+24], %rd8;
	ld.param.u64 	%rd11, [_ZN2cl4sycl6detail9item_baseC2E__ns1NS1_11index_arrayES3_S3__param_1];
	ld.param.u64 	%rd12, [_ZN2cl4sycl6detail9item_baseC2E__ns1NS1_11index_arrayES3_S3__param_1+8];
	ld.param.u64 	%rd13, [_ZN2cl4sycl6detail9item_baseC2E__ns1NS1_11index_arrayES3_S3__param_1+16];
	st.u64 	[%SP+64], %rd13;
	st.u64 	[%SP+56], %rd12;
	st.u64 	[%SP+48], %rd11;
	st.u64 	[%SP+72], %rd1;
	ld.u64 	%rd14, [%SP+72];
	add.u64 	%rd15, %SP, 48;
	mov.u64 	%rd16, 24;
	{ // callseq 48, 0
	.reg .b32 temp_param_reg;
	.param .b64 param0;
	st.param.b64 	[param0+0], %rd14;
	.param .b64 param1;
	st.param.b64 	[param1+0], %rd15;
	.param .b64 param2;
	st.param.b64 	[param2+0], %rd16;
	call.uni 
	_ZN2cl4sycl6memcpyIccyEE__ns1vPcPKcy, 
	(
	param0, 
	param1, 
	param2
	);
	} // callseq 48
	add.s64 	%rd17, %rd14, 24;
	add.u64 	%rd18, %SP, 24;
	{ // callseq 49, 0
	.reg .b32 temp_param_reg;
	.param .b64 param0;
	st.param.b64 	[param0+0], %rd17;
	.param .b64 param1;
	st.param.b64 	[param1+0], %rd18;
	.param .b64 param2;
	st.param.b64 	[param2+0], %rd16;
	call.uni 
	_ZN2cl4sycl6memcpyIccyEE__ns1vPcPKcy, 
	(
	param0, 
	param1, 
	param2
	);
	} // callseq 49
	add.s64 	%rd19, %rd14, 48;
	add.u64 	%rd20, %SP, 0;
	{ // callseq 50, 0
	.reg .b32 temp_param_reg;
	.param .b64 param0;
	st.param.b64 	[param0+0], %rd19;
	.param .b64 param1;
	st.param.b64 	[param1+0], %rd20;
	.param .b64 param2;
	st.param.b64 	[param2+0], %rd16;
	call.uni 
	_ZN2cl4sycl6memcpyIccyEE__ns1vPcPKcy, 
	(
	param0, 
	param1, 
	param2
	);
	} // callseq 50
	mov.u32 	%r1, 0;
	{ // callseq 51, 0
	.reg .b32 temp_param_reg;
	.param .b64 param0;
	st.param.b64 	[param0+0], %rd14;
	.param .b32 param1;
	st.param.b32 	[param1+0], %r1;
	.param .b64 retval0;
	call.uni (retval0), 
	_ZN2cl4sycl6detail11index_arrayixE__ns1j, 
	(
	param0, 
	param1
	);
	ld.param.b64 	%rd21, [retval0+0];
	} // callseq 51
	ld.u64 	%rd22, [%rd21];
	mov.u32 	%r2, 1;
	{ // callseq 52, 0
	.reg .b32 temp_param_reg;
	.param .b64 param0;
	st.param.b64 	[param0+0], %rd14;
	.param .b32 param1;
	st.param.b32 	[param1+0], %r2;
	.param .b64 retval0;
	call.uni (retval0), 
	_ZN2cl4sycl6detail11index_arrayixE__ns1j, 
	(
	param0, 
	param1
	);
	ld.param.b64 	%rd23, [retval0+0];
	} // callseq 52
	ld.u64 	%rd24, [%rd23];
	mov.u32 	%r3, 2;
	{ // callseq 53, 0
	.reg .b32 temp_param_reg;
	.param .b64 param0;
	st.param.b64 	[param0+0], %rd14;
	.param .b32 param1;
	st.param.b32 	[param1+0], %r3;
	.param .b64 retval0;
	call.uni (retval0), 
	_ZN2cl4sycl6detail11index_arrayixE__ns1j, 
	(
	param0, 
	param1
	);
	ld.param.b64 	%rd25, [retval0+0];
	} // callseq 53
	ld.u64 	%rd26, [%rd25];
	{ // callseq 54, 0
	.reg .b32 temp_param_reg;
	.param .b64 param0;
	st.param.b64 	[param0+0], %rd17;
	.param .b32 param1;
	st.param.b32 	[param1+0], %r1;
	.param .b64 retval0;
	call.uni (retval0), 
	_ZN2cl4sycl6detail11index_arrayixE__ns1j, 
	(
	param0, 
	param1
	);
	ld.param.b64 	%rd27, [retval0+0];
	} // callseq 54
	ld.u64 	%rd28, [%rd27];
	{ // callseq 55, 0
	.reg .b32 temp_param_reg;
	.param .b64 param0;
	st.param.b64 	[param0+0], %rd17;
	.param .b32 param1;
	st.param.b32 	[param1+0], %r2;
	.param .b64 retval0;
	call.uni (retval0), 
	_ZN2cl4sycl6detail11index_arrayixE__ns1j, 
	(
	param0, 
	param1
	);
	ld.param.b64 	%rd29, [retval0+0];
	} // callseq 55
	ld.u64 	%rd30, [%rd29];
	{ // callseq 56, 0
	.reg .b32 temp_param_reg;
	.param .b64 param0;
	st.param.b64 	[param0+0], %rd17;
	.param .b32 param1;
	st.param.b32 	[param1+0], %r3;
	.param .b64 retval0;
	call.uni (retval0), 
	_ZN2cl4sycl6detail11index_arrayixE__ns1j, 
	(
	param0, 
	param1
	);
	ld.param.b64 	%rd31, [retval0+0];
	} // callseq 56
	ld.u64 	%rd32, [%rd31];
	{ // callseq 57, 0
	.reg .b32 temp_param_reg;
	.param .b64 param0;
	st.param.b64 	[param0+0], %rd22;
	.param .b64 param1;
	st.param.b64 	[param1+0], %rd24;
	.param .b64 param2;
	st.param.b64 	[param2+0], %rd26;
	.param .b64 param3;
	st.param.b64 	[param3+0], %rd28;
	.param .b64 param4;
	st.param.b64 	[param4+0], %rd30;
	.param .b64 param5;
	st.param.b64 	[param5+0], %rd32;
	.param .b64 retval0;
	call.uni (retval0), 
	_ZN2cl4sycl6detail32construct_linear_row_major_indexILm3EEE__ns1mmmmmmm, 
	(
	param0, 
	param1, 
	param2, 
	param3, 
	param4, 
	param5
	);
	ld.param.b64 	%rd33, [retval0+0];
	} // callseq 57
	st.u64 	[%rd14+72], %rd33;
	ret;
}
                                        // -- End function
	// .globl	_ZN2cl4sycl6detail11index_arrayixE__ns1j // -- Begin function _ZN2cl4sycl6detail11index_arrayixE__ns1j
.func  (.param .b64 func_retval0) _ZN2cl4sycl6detail11index_arrayixE__ns1j(
	.param .b64 _ZN2cl4sycl6detail11index_arrayixE__ns1j_param_0,
	.param .b32 _ZN2cl4sycl6detail11index_arrayixE__ns1j_param_1
)                                       // @_ZN2cl4sycl6detail11index_arrayixE__ns1j
{
	.local .align 8 .b8 	__local_depot11[16];
	.reg .b64 	%SP;
	.reg .b64 	%SPL;
	.reg .pred 	%p<2>;
	.reg .b32 	%r<3>;
	.reg .b64 	%rd<6>;

// %bb.0:
	mov.u64 	%SPL, __local_depot11;
	cvta.local.u64 	%SP, %SPL;
	ld.param.u32 	%r1, [_ZN2cl4sycl6detail11index_arrayixE__ns1j_param_1];
	ld.param.u64 	%rd2, [_ZN2cl4sycl6detail11index_arrayixE__ns1j_param_0];
	st.u64 	[%SP+0], %rd2;
	st.u32 	[%SP+8], %r1;
	ld.u64 	%rd1, [%SP+0];
	ld.u32 	%r2, [%SP+8];
	setp.lt.u32 	%p1, %r2, 3;
	@%p1 bra 	LBB11_2;
	bra.uni 	LBB11_1;
LBB11_1:
	bra.uni 	LBB11_2;
LBB11_2:
	ld.u32 	%rd3, [%SP+8];
	shl.b64 	%rd4, %rd3, 3;
	add.s64 	%rd5, %rd1, %rd4;
	st.param.b64 	[func_retval0+0], %rd5;
	ret;
}
                                        // -- End function
	// .globl	_ZNK2cl4sycl6detail16index_array_base3getE__ns1j // -- Begin function _ZNK2cl4sycl6detail16index_array_base3getE__ns1j
.func  (.param .b64 func_retval0) _ZNK2cl4sycl6detail16index_array_base3getE__ns1j(
	.param .b64 _ZNK2cl4sycl6detail16index_array_base3getE__ns1j_param_0,
	.param .b32 _ZNK2cl4sycl6detail16index_array_base3getE__ns1j_param_1
)                                       // @_ZNK2cl4sycl6detail16index_array_base3getE__ns1j
{
	.local .align 8 .b8 	__local_depot12[16];
	.reg .b64 	%SP;
	.reg .b64 	%SPL;
	.reg .b32 	%r<3>;
	.reg .b64 	%rd<4>;

// %bb.0:
	mov.u64 	%SPL, __local_depot12;
	cvta.local.u64 	%SP, %SPL;
	ld.param.u32 	%r1, [_ZNK2cl4sycl6detail16index_array_base3getE__ns1j_param_1];
	ld.param.u64 	%rd1, [_ZNK2cl4sycl6detail16index_array_base3getE__ns1j_param_0];
	st.u64 	[%SP+0], %rd1;
	st.u32 	[%SP+8], %r1;
	ld.u64 	%rd2, [%SP+0];
	ld.u32 	%r2, [%SP+8];
	{ // callseq 58, 0
	.reg .b32 temp_param_reg;
	.param .b64 param0;
	st.param.b64 	[param0+0], %rd2;
	.param .b32 param1;
	st.param.b32 	[param1+0], %r2;
	.param .b64 retval0;
	call.uni (retval0), 
	_ZNK2cl4sycl6detail11index_arrayixE__ns1j, 
	(
	param0, 
	param1
	);
	ld.param.b64 	%rd3, [retval0+0];
	} // callseq 58
	st.param.b64 	[func_retval0+0], %rd3;
	ret;
}
                                        // -- End function
	// .globl	_ZNK2cl4sycl6detail15accessor_commonIfLi1ELNS0_6access4modeE0ELNS3_6targetE1ELNS3_11placeholderE0EEixIfvEE__ns1fm // -- Begin function _ZNK2cl4sycl6detail15accessor_commonIfLi1ELNS0_6access4modeE0ELNS3_6targetE1ELNS3_11placeholderE0EEixIfvEE__ns1fm
.func  (.param .b32 func_retval0) _ZNK2cl4sycl6detail15accessor_commonIfLi1ELNS0_6access4modeE0ELNS3_6targetE1ELNS3_11placeholderE0EEixIfvEE__ns1fm(
	.param .b64 _ZNK2cl4sycl6detail15accessor_commonIfLi1ELNS0_6access4modeE0ELNS3_6targetE1ELNS3_11placeholderE0EEixIfvEE__ns1fm_param_0,
	.param .b64 _ZNK2cl4sycl6detail15accessor_commonIfLi1ELNS0_6access4modeE0ELNS3_6targetE1ELNS3_11placeholderE0EEixIfvEE__ns1fm_param_1
)                                       // @_ZNK2cl4sycl6detail15accessor_commonIfLi1ELNS0_6access4modeE0ELNS3_6targetE1ELNS3_11placeholderE0EEixIfvEE__ns1fm
{
	.local .align 8 .b8 	__local_depot13[16];
	.reg .b64 	%SP;
	.reg .b64 	%SPL;
	.reg .f32 	%f<2>;
	.reg .b64 	%rd<8>;

// %bb.0:
	mov.u64 	%SPL, __local_depot13;
	cvta.local.u64 	%SP, %SPL;
	ld.param.u64 	%rd2, [_ZNK2cl4sycl6detail15accessor_commonIfLi1ELNS0_6access4modeE0ELNS3_6targetE1ELNS3_11placeholderE0EEixIfvEE__ns1fm_param_1];
	ld.param.u64 	%rd1, [_ZNK2cl4sycl6detail15accessor_commonIfLi1ELNS0_6access4modeE0ELNS3_6targetE1ELNS3_11placeholderE0EEixIfvEE__ns1fm_param_0];
	st.u64 	[%SP+0], %rd1;
	st.u64 	[%SP+8], %rd2;
	ld.u64 	%rd3, [%SP+0];
	{ // callseq 59, 0
	.reg .b32 temp_param_reg;
	.param .b64 param0;
	st.param.b64 	[param0+0], %rd3;
	.param .b64 retval0;
	call.uni (retval0), 
	_ZNK2cl4sycl6detail15accessor_commonIfLi1ELNS0_6access4modeE0ELNS3_6targetE1ELNS3_11placeholderE0EE14get_device_ptrE__ns1v, 
	(
	param0
	);
	ld.param.b64 	%rd4, [retval0+0];
	} // callseq 59
	ld.u64 	%rd5, [%SP+8];
	shl.b64 	%rd6, %rd5, 2;
	add.s64 	%rd7, %rd4, %rd6;
	ld.global.f32 	%f1, [%rd7];
	st.param.f32 	[func_retval0+0], %f1;
	ret;
}
                                        // -- End function
	// .globl	_ZNK2cl4sycl6detail15accessor_commonIiLi1ELNS0_6access4modeE1ELNS3_6targetE1ELNS3_11placeholderE0EEixIivEE__ns1RU3AS1im // -- Begin function _ZNK2cl4sycl6detail15accessor_commonIiLi1ELNS0_6access4modeE1ELNS3_6targetE1ELNS3_11placeholderE0EEixIivEE__ns1RU3AS1im
.func  (.param .b64 func_retval0) _ZNK2cl4sycl6detail15accessor_commonIiLi1ELNS0_6access4modeE1ELNS3_6targetE1ELNS3_11placeholderE0EEixIivEE__ns1RU3AS1im(
	.param .b64 _ZNK2cl4sycl6detail15accessor_commonIiLi1ELNS0_6access4modeE1ELNS3_6targetE1ELNS3_11placeholderE0EEixIivEE__ns1RU3AS1im_param_0,
	.param .b64 _ZNK2cl4sycl6detail15accessor_commonIiLi1ELNS0_6access4modeE1ELNS3_6targetE1ELNS3_11placeholderE0EEixIivEE__ns1RU3AS1im_param_1
)                                       // @_ZNK2cl4sycl6detail15accessor_commonIiLi1ELNS0_6access4modeE1ELNS3_6targetE1ELNS3_11placeholderE0EEixIivEE__ns1RU3AS1im
{
	.local .align 8 .b8 	__local_depot14[16];
	.reg .b64 	%SP;
	.reg .b64 	%SPL;
	.reg .b64 	%rd<8>;

// %bb.0:
	mov.u64 	%SPL, __local_depot14;
	cvta.local.u64 	%SP, %SPL;
	ld.param.u64 	%rd2, [_ZNK2cl4sycl6detail15accessor_commonIiLi1ELNS0_6access4modeE1ELNS3_6targetE1ELNS3_11placeholderE0EEixIivEE__ns1RU3AS1im_param_1];
	ld.param.u64 	%rd1, [_ZNK2cl4sycl6detail15accessor_commonIiLi1ELNS0_6access4modeE1ELNS3_6targetE1ELNS3_11placeholderE0EEixIivEE__ns1RU3AS1im_param_0];
	st.u64 	[%SP+0], %rd1;
	st.u64 	[%SP+8], %rd2;
	ld.u64 	%rd3, [%SP+0];
	{ // callseq 60, 0
	.reg .b32 temp_param_reg;
	.param .b64 param0;
	st.param.b64 	[param0+0], %rd3;
	.param .b64 retval0;
	call.uni (retval0), 
	_ZNK2cl4sycl6detail15accessor_commonIiLi1ELNS0_6access4modeE1ELNS3_6targetE1ELNS3_11placeholderE0EE14get_device_ptrE__ns1v, 
	(
	param0
	);
	ld.param.b64 	%rd4, [retval0+0];
	} // callseq 60
	ld.u64 	%rd5, [%SP+8];
	shl.b64 	%rd6, %rd5, 2;
	add.s64 	%rd7, %rd4, %rd6;
	st.param.b64 	[func_retval0+0], %rd7;
	ret;
}
                                        // -- End function
	// .globl	_ZNK2cl4sycl6detail15accessor_commonIfLi1ELNS0_6access4modeE1ELNS3_6targetE1ELNS3_11placeholderE0EEixIfvEE__ns1RU3AS1fm // -- Begin function _ZNK2cl4sycl6detail15accessor_commonIfLi1ELNS0_6access4modeE1ELNS3_6targetE1ELNS3_11placeholderE0EEixIfvEE__ns1RU3AS1fm
.func  (.param .b64 func_retval0) _ZNK2cl4sycl6detail15accessor_commonIfLi1ELNS0_6access4modeE1ELNS3_6targetE1ELNS3_11placeholderE0EEixIfvEE__ns1RU3AS1fm(
	.param .b64 _ZNK2cl4sycl6detail15accessor_commonIfLi1ELNS0_6access4modeE1ELNS3_6targetE1ELNS3_11placeholderE0EEixIfvEE__ns1RU3AS1fm_param_0,
	.param .b64 _ZNK2cl4sycl6detail15accessor_commonIfLi1ELNS0_6access4modeE1ELNS3_6targetE1ELNS3_11placeholderE0EEixIfvEE__ns1RU3AS1fm_param_1
)                                       // @_ZNK2cl4sycl6detail15accessor_commonIfLi1ELNS0_6access4modeE1ELNS3_6targetE1ELNS3_11placeholderE0EEixIfvEE__ns1RU3AS1fm
{
	.local .align 8 .b8 	__local_depot15[16];
	.reg .b64 	%SP;
	.reg .b64 	%SPL;
	.reg .b64 	%rd<8>;

// %bb.0:
	mov.u64 	%SPL, __local_depot15;
	cvta.local.u64 	%SP, %SPL;
	ld.param.u64 	%rd2, [_ZNK2cl4sycl6detail15accessor_commonIfLi1ELNS0_6access4modeE1ELNS3_6targetE1ELNS3_11placeholderE0EEixIfvEE__ns1RU3AS1fm_param_1];
	ld.param.u64 	%rd1, [_ZNK2cl4sycl6detail15accessor_commonIfLi1ELNS0_6access4modeE1ELNS3_6targetE1ELNS3_11placeholderE0EEixIfvEE__ns1RU3AS1fm_param_0];
	st.u64 	[%SP+0], %rd1;
	st.u64 	[%SP+8], %rd2;
	ld.u64 	%rd3, [%SP+0];
	{ // callseq 61, 0
	.reg .b32 temp_param_reg;
	.param .b64 param0;
	st.param.b64 	[param0+0], %rd3;
	.param .b64 retval0;
	call.uni (retval0), 
	_ZNK2cl4sycl6detail15accessor_commonIfLi1ELNS0_6access4modeE1ELNS3_6targetE1ELNS3_11placeholderE0EE14get_device_ptrE__ns1v, 
	(
	param0
	);
	ld.param.b64 	%rd4, [retval0+0];
	} // callseq 61
	ld.u64 	%rd5, [%SP+8];
	shl.b64 	%rd6, %rd5, 2;
	add.s64 	%rd7, %rd4, %rd6;
	st.param.b64 	[func_retval0+0], %rd7;
	ret;
}
                                        // -- End function
	// .globl	_ZNK2cl4sycl6detail11index_arrayixE__ns1j // -- Begin function _ZNK2cl4sycl6detail11index_arrayixE__ns1j
.func  (.param .b64 func_retval0) _ZNK2cl4sycl6detail11index_arrayixE__ns1j(
	.param .b64 _ZNK2cl4sycl6detail11index_arrayixE__ns1j_param_0,
	.param .b32 _ZNK2cl4sycl6detail11index_arrayixE__ns1j_param_1
)                                       // @_ZNK2cl4sycl6detail11index_arrayixE__ns1j
{
	.local .align 8 .b8 	__local_depot16[16];
	.reg .b64 	%SP;
	.reg .b64 	%SPL;
	.reg .pred 	%p<2>;
	.reg .b32 	%r<3>;
	.reg .b64 	%rd<7>;

// %bb.0:
	mov.u64 	%SPL, __local_depot16;
	cvta.local.u64 	%SP, %SPL;
	ld.param.u32 	%r1, [_ZNK2cl4sycl6detail11index_arrayixE__ns1j_param_1];
	ld.param.u64 	%rd2, [_ZNK2cl4sycl6detail11index_arrayixE__ns1j_param_0];
	st.u64 	[%SP+0], %rd2;
	st.u32 	[%SP+8], %r1;
	ld.u64 	%rd1, [%SP+0];
	ld.u32 	%r2, [%SP+8];
	setp.lt.u32 	%p1, %r2, 3;
	@%p1 bra 	LBB16_2;
	bra.uni 	LBB16_1;
LBB16_1:
	bra.uni 	LBB16_2;
LBB16_2:
	ld.u32 	%rd3, [%SP+8];
	shl.b64 	%rd4, %rd3, 3;
	add.s64 	%rd5, %rd1, %rd4;
	ld.u64 	%rd6, [%rd5];
	st.param.b64 	[func_retval0+0], %rd6;
	ret;
}
                                        // -- End function
	// .globl	_ZNK2cl4sycl6detail15accessor_commonIfLi1ELNS0_6access4modeE0ELNS3_6targetE1ELNS3_11placeholderE0EE14get_device_ptrE__ns1v // -- Begin function _ZNK2cl4sycl6detail15accessor_commonIfLi1ELNS0_6access4modeE0ELNS3_6targetE1ELNS3_11placeholderE0EE14get_device_ptrE__ns1v
.func  (.param .b64 func_retval0) _ZNK2cl4sycl6detail15accessor_commonIfLi1ELNS0_6access4modeE0ELNS3_6targetE1ELNS3_11placeholderE0EE14get_device_ptrE__ns1v(
	.param .b64 _ZNK2cl4sycl6detail15accessor_commonIfLi1ELNS0_6access4modeE0ELNS3_6targetE1ELNS3_11placeholderE0EE14get_device_ptrE__ns1v_param_0
)                                       // @_ZNK2cl4sycl6detail15accessor_commonIfLi1ELNS0_6access4modeE0ELNS3_6targetE1ELNS3_11placeholderE0EE14get_device_ptrE__ns1v
{
	.local .align 8 .b8 	__local_depot17[8];
	.reg .b64 	%SP;
	.reg .b64 	%SPL;
	.reg .b64 	%rd<4>;

// %bb.0:
	mov.u64 	%SPL, __local_depot17;
	cvta.local.u64 	%SP, %SPL;
	ld.param.u64 	%rd1, [_ZNK2cl4sycl6detail15accessor_commonIfLi1ELNS0_6access4modeE0ELNS3_6targetE1ELNS3_11placeholderE0EE14get_device_ptrE__ns1v_param_0];
	st.u64 	[%SP+0], %rd1;
	ld.u64 	%rd2, [%SP+0];
	{ // callseq 62, 0
	.reg .b32 temp_param_reg;
	.param .b64 param0;
	st.param.b64 	[param0+0], %rd2;
	.param .b64 retval0;
	call.uni (retval0), 
	_ZNK2cl4sycl10device_argIfLi1ELNS0_6access4modeE0ELNS2_6targetE1ELNS2_11placeholderE0EE7get_ptrE__ns1v, 
	(
	param0
	);
	ld.param.b64 	%rd3, [retval0+0];
	} // callseq 62
	st.param.b64 	[func_retval0+0], %rd3;
	ret;
}
                                        // -- End function
	// .globl	_ZNK2cl4sycl10device_argIfLi1ELNS0_6access4modeE0ELNS2_6targetE1ELNS2_11placeholderE0EE7get_ptrE__ns1v // -- Begin function _ZNK2cl4sycl10device_argIfLi1ELNS0_6access4modeE0ELNS2_6targetE1ELNS2_11placeholderE0EE7get_ptrE__ns1v
.func  (.param .b64 func_retval0) _ZNK2cl4sycl10device_argIfLi1ELNS0_6access4modeE0ELNS2_6targetE1ELNS2_11placeholderE0EE7get_ptrE__ns1v(
	.param .b64 _ZNK2cl4sycl10device_argIfLi1ELNS0_6access4modeE0ELNS2_6targetE1ELNS2_11placeholderE0EE7get_ptrE__ns1v_param_0
)                                       // @_ZNK2cl4sycl10device_argIfLi1ELNS0_6access4modeE0ELNS2_6targetE1ELNS2_11placeholderE0EE7get_ptrE__ns1v
{
	.local .align 8 .b8 	__local_depot18[16];
	.reg .b64 	%SP;
	.reg .b64 	%SPL;
	.reg .b64 	%rd<6>;

// %bb.0:
	mov.u64 	%SPL, __local_depot18;
	cvta.local.u64 	%SP, %SPL;
	ld.param.u64 	%rd1, [_ZNK2cl4sycl10device_argIfLi1ELNS0_6access4modeE0ELNS2_6targetE1ELNS2_11placeholderE0EE7get_ptrE__ns1v_param_0];
	st.u64 	[%SP+0], %rd1;
	ld.u64 	%rd2, [%SP+0];
	ld.u64 	%rd3, [%rd2];
	add.u64 	%rd4, %SP, 8;
	{ // callseq 63, 0
	.reg .b32 temp_param_reg;
	.param .b64 param0;
	st.param.b64 	[param0+0], %rd4;
	.param .b64 param1;
	st.param.b64 	[param1+0], %rd3;
	call.uni 
	_ZN2cl4sycl9multi_ptrIfLNS0_6access13address_spaceE1EEC2E__ns1PU3AS1f, 
	(
	param0, 
	param1
	);
	} // callseq 63
	{ // callseq 64, 0
	.reg .b32 temp_param_reg;
	.param .b64 param0;
	st.param.b64 	[param0+0], %rd4;
	.param .b64 retval0;
	call.uni (retval0), 
	_ZNK2cl4sycl6detail14multi_ptr_baseIfLNS0_6access13address_spaceE1EEcvPfE__ns1v, 
	(
	param0
	);
	ld.param.b64 	%rd5, [retval0+0];
	} // callseq 64
	st.param.b64 	[func_retval0+0], %rd5;
	ret;
}
                                        // -- End function
	// .globl	_ZN2cl4sycl9multi_ptrIfLNS0_6access13address_spaceE1EEC2E__ns1PU3AS1f // -- Begin function _ZN2cl4sycl9multi_ptrIfLNS0_6access13address_spaceE1EEC2E__ns1PU3AS1f
.func _ZN2cl4sycl9multi_ptrIfLNS0_6access13address_spaceE1EEC2E__ns1PU3AS1f(
	.param .b64 _ZN2cl4sycl9multi_ptrIfLNS0_6access13address_spaceE1EEC2E__ns1PU3AS1f_param_0,
	.param .b64 _ZN2cl4sycl9multi_ptrIfLNS0_6access13address_spaceE1EEC2E__ns1PU3AS1f_param_1
)                                       // @_ZN2cl4sycl9multi_ptrIfLNS0_6access13address_spaceE1EEC2E__ns1PU3AS1f
{
	.local .align 8 .b8 	__local_depot19[16];
	.reg .b64 	%SP;
	.reg .b64 	%SPL;
	.reg .b64 	%rd<5>;

// %bb.0:
	mov.u64 	%SPL, __local_depot19;
	cvta.local.u64 	%SP, %SPL;
	ld.param.u64 	%rd2, [_ZN2cl4sycl9multi_ptrIfLNS0_6access13address_spaceE1EEC2E__ns1PU3AS1f_param_1];
	ld.param.u64 	%rd1, [_ZN2cl4sycl9multi_ptrIfLNS0_6access13address_spaceE1EEC2E__ns1PU3AS1f_param_0];
	st.u64 	[%SP+0], %rd1;
	st.u64 	[%SP+8], %rd2;
	ld.u64 	%rd3, [%SP+0];
	ld.u64 	%rd4, [%SP+8];
	{ // callseq 65, 0
	.reg .b32 temp_param_reg;
	.param .b64 param0;
	st.param.b64 	[param0+0], %rd3;
	.param .b64 param1;
	st.param.b64 	[param1+0], %rd4;
	call.uni 
	_ZN2cl4sycl6detail14multi_ptr_baseIfLNS0_6access13address_spaceE1EEC2E__ns1PU3AS1f, 
	(
	param0, 
	param1
	);
	} // callseq 65
	ret;
}
                                        // -- End function
	// .globl	_ZNK2cl4sycl6detail14multi_ptr_baseIfLNS0_6access13address_spaceE1EEcvPfE__ns1v // -- Begin function _ZNK2cl4sycl6detail14multi_ptr_baseIfLNS0_6access13address_spaceE1EEcvPfE__ns1v
.func  (.param .b64 func_retval0) _ZNK2cl4sycl6detail14multi_ptr_baseIfLNS0_6access13address_spaceE1EEcvPfE__ns1v(
	.param .b64 _ZNK2cl4sycl6detail14multi_ptr_baseIfLNS0_6access13address_spaceE1EEcvPfE__ns1v_param_0
)                                       // @_ZNK2cl4sycl6detail14multi_ptr_baseIfLNS0_6access13address_spaceE1EEcvPfE__ns1v
{
	.local .align 8 .b8 	__local_depot20[8];
	.reg .b64 	%SP;
	.reg .b64 	%SPL;
	.reg .b64 	%rd<4>;

// %bb.0:
	mov.u64 	%SPL, __local_depot20;
	cvta.local.u64 	%SP, %SPL;
	ld.param.u64 	%rd1, [_ZNK2cl4sycl6detail14multi_ptr_baseIfLNS0_6access13address_spaceE1EEcvPfE__ns1v_param_0];
	st.u64 	[%SP+0], %rd1;
	ld.u64 	%rd2, [%SP+0];
	{ // callseq 66, 0
	.reg .b32 temp_param_reg;
	.param .b64 param0;
	st.param.b64 	[param0+0], %rd2;
	.param .b64 retval0;
	call.uni (retval0), 
	_ZNK2cl4sycl6detail14multi_ptr_baseIfLNS0_6access13address_spaceE1EE20get_pointer_internalE__ns1v, 
	(
	param0
	);
	ld.param.b64 	%rd3, [retval0+0];
	} // callseq 66
	st.param.b64 	[func_retval0+0], %rd3;
	ret;
}
                                        // -- End function
	// .globl	_ZN2cl4sycl6detail14multi_ptr_baseIfLNS0_6access13address_spaceE1EEC2E__ns1PU3AS1f // -- Begin function _ZN2cl4sycl6detail14multi_ptr_baseIfLNS0_6access13address_spaceE1EEC2E__ns1PU3AS1f
.func _ZN2cl4sycl6detail14multi_ptr_baseIfLNS0_6access13address_spaceE1EEC2E__ns1PU3AS1f(
	.param .b64 _ZN2cl4sycl6detail14multi_ptr_baseIfLNS0_6access13address_spaceE1EEC2E__ns1PU3AS1f_param_0,
	.param .b64 _ZN2cl4sycl6detail14multi_ptr_baseIfLNS0_6access13address_spaceE1EEC2E__ns1PU3AS1f_param_1
)                                       // @_ZN2cl4sycl6detail14multi_ptr_baseIfLNS0_6access13address_spaceE1EEC2E__ns1PU3AS1f
{
	.local .align 8 .b8 	__local_depot21[16];
	.reg .b64 	%SP;
	.reg .b64 	%SPL;
	.reg .b64 	%rd<5>;

// %bb.0:
	mov.u64 	%SPL, __local_depot21;
	cvta.local.u64 	%SP, %SPL;
	ld.param.u64 	%rd2, [_ZN2cl4sycl6detail14multi_ptr_baseIfLNS0_6access13address_spaceE1EEC2E__ns1PU3AS1f_param_1];
	ld.param.u64 	%rd1, [_ZN2cl4sycl6detail14multi_ptr_baseIfLNS0_6access13address_spaceE1EEC2E__ns1PU3AS1f_param_0];
	st.u64 	[%SP+0], %rd1;
	st.u64 	[%SP+8], %rd2;
	ld.u64 	%rd3, [%SP+0];
	ld.u64 	%rd4, [%SP+8];
	st.u64 	[%rd3], %rd4;
	ret;
}
                                        // -- End function
	// .globl	_ZNK2cl4sycl6detail14multi_ptr_baseIfLNS0_6access13address_spaceE1EE20get_pointer_internalE__ns1v // -- Begin function _ZNK2cl4sycl6detail14multi_ptr_baseIfLNS0_6access13address_spaceE1EE20get_pointer_internalE__ns1v
.func  (.param .b64 func_retval0) _ZNK2cl4sycl6detail14multi_ptr_baseIfLNS0_6access13address_spaceE1EE20get_pointer_internalE__ns1v(
	.param .b64 _ZNK2cl4sycl6detail14multi_ptr_baseIfLNS0_6access13address_spaceE1EE20get_pointer_internalE__ns1v_param_0
)                                       // @_ZNK2cl4sycl6detail14multi_ptr_baseIfLNS0_6access13address_spaceE1EE20get_pointer_internalE__ns1v
{
	.local .align 8 .b8 	__local_depot22[8];
	.reg .b64 	%SP;
	.reg .b64 	%SPL;
	.reg .b64 	%rd<5>;

// %bb.0:
	mov.u64 	%SPL, __local_depot22;
	cvta.local.u64 	%SP, %SPL;
	ld.param.u64 	%rd1, [_ZNK2cl4sycl6detail14multi_ptr_baseIfLNS0_6access13address_spaceE1EE20get_pointer_internalE__ns1v_param_0];
	st.u64 	[%SP+0], %rd1;
	ld.u64 	%rd2, [%SP+0];
	ld.u64 	%rd3, [%rd2];
	{ // callseq 67, 0
	.reg .b32 temp_param_reg;
	.param .b64 param0;
	st.param.b64 	[param0+0], %rd3;
	.param .b64 retval0;
	call.uni (retval0), 
	_ZN2cl4sycl6detail25get_pointer_internal_typeIfLNS0_6access13address_spaceE1EEE__ns1PU3AS1fS6_, 
	(
	param0
	);
	ld.param.b64 	%rd4, [retval0+0];
	} // callseq 67
	st.param.b64 	[func_retval0+0], %rd4;
	ret;
}
                                        // -- End function
	// .globl	_ZNK2cl4sycl6detail15accessor_commonIiLi1ELNS0_6access4modeE1ELNS3_6targetE1ELNS3_11placeholderE0EE14get_device_ptrE__ns1v // -- Begin function _ZNK2cl4sycl6detail15accessor_commonIiLi1ELNS0_6access4modeE1ELNS3_6targetE1ELNS3_11placeholderE0EE14get_device_ptrE__ns1v
.func  (.param .b64 func_retval0) _ZNK2cl4sycl6detail15accessor_commonIiLi1ELNS0_6access4modeE1ELNS3_6targetE1ELNS3_11placeholderE0EE14get_device_ptrE__ns1v(
	.param .b64 _ZNK2cl4sycl6detail15accessor_commonIiLi1ELNS0_6access4modeE1ELNS3_6targetE1ELNS3_11placeholderE0EE14get_device_ptrE__ns1v_param_0
)                                       // @_ZNK2cl4sycl6detail15accessor_commonIiLi1ELNS0_6access4modeE1ELNS3_6targetE1ELNS3_11placeholderE0EE14get_device_ptrE__ns1v
{
	.local .align 8 .b8 	__local_depot23[8];
	.reg .b64 	%SP;
	.reg .b64 	%SPL;
	.reg .b64 	%rd<4>;

// %bb.0:
	mov.u64 	%SPL, __local_depot23;
	cvta.local.u64 	%SP, %SPL;
	ld.param.u64 	%rd1, [_ZNK2cl4sycl6detail15accessor_commonIiLi1ELNS0_6access4modeE1ELNS3_6targetE1ELNS3_11placeholderE0EE14get_device_ptrE__ns1v_param_0];
	st.u64 	[%SP+0], %rd1;
	ld.u64 	%rd2, [%SP+0];
	{ // callseq 68, 0
	.reg .b32 temp_param_reg;
	.param .b64 param0;
	st.param.b64 	[param0+0], %rd2;
	.param .b64 retval0;
	call.uni (retval0), 
	_ZNK2cl4sycl10device_argIiLi1ELNS0_6access4modeE1ELNS2_6targetE1ELNS2_11placeholderE0EE7get_ptrE__ns1v, 
	(
	param0
	);
	ld.param.b64 	%rd3, [retval0+0];
	} // callseq 68
	st.param.b64 	[func_retval0+0], %rd3;
	ret;
}
                                        // -- End function
	// .globl	_ZNK2cl4sycl10device_argIiLi1ELNS0_6access4modeE1ELNS2_6targetE1ELNS2_11placeholderE0EE7get_ptrE__ns1v // -- Begin function _ZNK2cl4sycl10device_argIiLi1ELNS0_6access4modeE1ELNS2_6targetE1ELNS2_11placeholderE0EE7get_ptrE__ns1v
.func  (.param .b64 func_retval0) _ZNK2cl4sycl10device_argIiLi1ELNS0_6access4modeE1ELNS2_6targetE1ELNS2_11placeholderE0EE7get_ptrE__ns1v(
	.param .b64 _ZNK2cl4sycl10device_argIiLi1ELNS0_6access4modeE1ELNS2_6targetE1ELNS2_11placeholderE0EE7get_ptrE__ns1v_param_0
)                                       // @_ZNK2cl4sycl10device_argIiLi1ELNS0_6access4modeE1ELNS2_6targetE1ELNS2_11placeholderE0EE7get_ptrE__ns1v
{
	.local .align 8 .b8 	__local_depot24[16];
	.reg .b64 	%SP;
	.reg .b64 	%SPL;
	.reg .b64 	%rd<6>;

// %bb.0:
	mov.u64 	%SPL, __local_depot24;
	cvta.local.u64 	%SP, %SPL;
	ld.param.u64 	%rd1, [_ZNK2cl4sycl10device_argIiLi1ELNS0_6access4modeE1ELNS2_6targetE1ELNS2_11placeholderE0EE7get_ptrE__ns1v_param_0];
	st.u64 	[%SP+0], %rd1;
	ld.u64 	%rd2, [%SP+0];
	ld.u64 	%rd3, [%rd2];
	add.u64 	%rd4, %SP, 8;
	{ // callseq 69, 0
	.reg .b32 temp_param_reg;
	.param .b64 param0;
	st.param.b64 	[param0+0], %rd4;
	.param .b64 param1;
	st.param.b64 	[param1+0], %rd3;
	call.uni 
	_ZN2cl4sycl9multi_ptrIiLNS0_6access13address_spaceE1EEC2E__ns1PU3AS1i, 
	(
	param0, 
	param1
	);
	} // callseq 69
	{ // callseq 70, 0
	.reg .b32 temp_param_reg;
	.param .b64 param0;
	st.param.b64 	[param0+0], %rd4;
	.param .b64 retval0;
	call.uni (retval0), 
	_ZNK2cl4sycl6detail14multi_ptr_baseIiLNS0_6access13address_spaceE1EEcvPiE__ns1v, 
	(
	param0
	);
	ld.param.b64 	%rd5, [retval0+0];
	} // callseq 70
	st.param.b64 	[func_retval0+0], %rd5;
	ret;
}
                                        // -- End function
	// .globl	_ZN2cl4sycl9multi_ptrIiLNS0_6access13address_spaceE1EEC2E__ns1PU3AS1i // -- Begin function _ZN2cl4sycl9multi_ptrIiLNS0_6access13address_spaceE1EEC2E__ns1PU3AS1i
.func _ZN2cl4sycl9multi_ptrIiLNS0_6access13address_spaceE1EEC2E__ns1PU3AS1i(
	.param .b64 _ZN2cl4sycl9multi_ptrIiLNS0_6access13address_spaceE1EEC2E__ns1PU3AS1i_param_0,
	.param .b64 _ZN2cl4sycl9multi_ptrIiLNS0_6access13address_spaceE1EEC2E__ns1PU3AS1i_param_1
)                                       // @_ZN2cl4sycl9multi_ptrIiLNS0_6access13address_spaceE1EEC2E__ns1PU3AS1i
{
	.local .align 8 .b8 	__local_depot25[16];
	.reg .b64 	%SP;
	.reg .b64 	%SPL;
	.reg .b64 	%rd<5>;

// %bb.0:
	mov.u64 	%SPL, __local_depot25;
	cvta.local.u64 	%SP, %SPL;
	ld.param.u64 	%rd2, [_ZN2cl4sycl9multi_ptrIiLNS0_6access13address_spaceE1EEC2E__ns1PU3AS1i_param_1];
	ld.param.u64 	%rd1, [_ZN2cl4sycl9multi_ptrIiLNS0_6access13address_spaceE1EEC2E__ns1PU3AS1i_param_0];
	st.u64 	[%SP+0], %rd1;
	st.u64 	[%SP+8], %rd2;
	ld.u64 	%rd3, [%SP+0];
	ld.u64 	%rd4, [%SP+8];
	{ // callseq 71, 0
	.reg .b32 temp_param_reg;
	.param .b64 param0;
	st.param.b64 	[param0+0], %rd3;
	.param .b64 param1;
	st.param.b64 	[param1+0], %rd4;
	call.uni 
	_ZN2cl4sycl6detail14multi_ptr_baseIiLNS0_6access13address_spaceE1EEC2E__ns1PU3AS1i, 
	(
	param0, 
	param1
	);
	} // callseq 71
	ret;
}
                                        // -- End function
	// .globl	_ZNK2cl4sycl6detail14multi_ptr_baseIiLNS0_6access13address_spaceE1EEcvPiE__ns1v // -- Begin function _ZNK2cl4sycl6detail14multi_ptr_baseIiLNS0_6access13address_spaceE1EEcvPiE__ns1v
.func  (.param .b64 func_retval0) _ZNK2cl4sycl6detail14multi_ptr_baseIiLNS0_6access13address_spaceE1EEcvPiE__ns1v(
	.param .b64 _ZNK2cl4sycl6detail14multi_ptr_baseIiLNS0_6access13address_spaceE1EEcvPiE__ns1v_param_0
)                                       // @_ZNK2cl4sycl6detail14multi_ptr_baseIiLNS0_6access13address_spaceE1EEcvPiE__ns1v
{
	.local .align 8 .b8 	__local_depot26[8];
	.reg .b64 	%SP;
	.reg .b64 	%SPL;
	.reg .b64 	%rd<4>;

// %bb.0:
	mov.u64 	%SPL, __local_depot26;
	cvta.local.u64 	%SP, %SPL;
	ld.param.u64 	%rd1, [_ZNK2cl4sycl6detail14multi_ptr_baseIiLNS0_6access13address_spaceE1EEcvPiE__ns1v_param_0];
	st.u64 	[%SP+0], %rd1;
	ld.u64 	%rd2, [%SP+0];
	{ // callseq 72, 0
	.reg .b32 temp_param_reg;
	.param .b64 param0;
	st.param.b64 	[param0+0], %rd2;
	.param .b64 retval0;
	call.uni (retval0), 
	_ZNK2cl4sycl6detail14multi_ptr_baseIiLNS0_6access13address_spaceE1EE20get_pointer_internalE__ns1v, 
	(
	param0
	);
	ld.param.b64 	%rd3, [retval0+0];
	} // callseq 72
	st.param.b64 	[func_retval0+0], %rd3;
	ret;
}
                                        // -- End function
	// .globl	_ZN2cl4sycl6detail14multi_ptr_baseIiLNS0_6access13address_spaceE1EEC2E__ns1PU3AS1i // -- Begin function _ZN2cl4sycl6detail14multi_ptr_baseIiLNS0_6access13address_spaceE1EEC2E__ns1PU3AS1i
.func _ZN2cl4sycl6detail14multi_ptr_baseIiLNS0_6access13address_spaceE1EEC2E__ns1PU3AS1i(
	.param .b64 _ZN2cl4sycl6detail14multi_ptr_baseIiLNS0_6access13address_spaceE1EEC2E__ns1PU3AS1i_param_0,
	.param .b64 _ZN2cl4sycl6detail14multi_ptr_baseIiLNS0_6access13address_spaceE1EEC2E__ns1PU3AS1i_param_1
)                                       // @_ZN2cl4sycl6detail14multi_ptr_baseIiLNS0_6access13address_spaceE1EEC2E__ns1PU3AS1i
{
	.local .align 8 .b8 	__local_depot27[16];
	.reg .b64 	%SP;
	.reg .b64 	%SPL;
	.reg .b64 	%rd<5>;

// %bb.0:
	mov.u64 	%SPL, __local_depot27;
	cvta.local.u64 	%SP, %SPL;
	ld.param.u64 	%rd2, [_ZN2cl4sycl6detail14multi_ptr_baseIiLNS0_6access13address_spaceE1EEC2E__ns1PU3AS1i_param_1];
	ld.param.u64 	%rd1, [_ZN2cl4sycl6detail14multi_ptr_baseIiLNS0_6access13address_spaceE1EEC2E__ns1PU3AS1i_param_0];
	st.u64 	[%SP+0], %rd1;
	st.u64 	[%SP+8], %rd2;
	ld.u64 	%rd3, [%SP+0];
	ld.u64 	%rd4, [%SP+8];
	st.u64 	[%rd3], %rd4;
	ret;
}
                                        // -- End function
	// .globl	_ZNK2cl4sycl6detail14multi_ptr_baseIiLNS0_6access13address_spaceE1EE20get_pointer_internalE__ns1v // -- Begin function _ZNK2cl4sycl6detail14multi_ptr_baseIiLNS0_6access13address_spaceE1EE20get_pointer_internalE__ns1v
.func  (.param .b64 func_retval0) _ZNK2cl4sycl6detail14multi_ptr_baseIiLNS0_6access13address_spaceE1EE20get_pointer_internalE__ns1v(
	.param .b64 _ZNK2cl4sycl6detail14multi_ptr_baseIiLNS0_6access13address_spaceE1EE20get_pointer_internalE__ns1v_param_0
)                                       // @_ZNK2cl4sycl6detail14multi_ptr_baseIiLNS0_6access13address_spaceE1EE20get_pointer_internalE__ns1v
{
	.local .align 8 .b8 	__local_depot28[8];
	.reg .b64 	%SP;
	.reg .b64 	%SPL;
	.reg .b64 	%rd<5>;

// %bb.0:
	mov.u64 	%SPL, __local_depot28;
	cvta.local.u64 	%SP, %SPL;
	ld.param.u64 	%rd1, [_ZNK2cl4sycl6detail14multi_ptr_baseIiLNS0_6access13address_spaceE1EE20get_pointer_internalE__ns1v_param_0];
	st.u64 	[%SP+0], %rd1;
	ld.u64 	%rd2, [%SP+0];
	ld.u64 	%rd3, [%rd2];
	{ // callseq 73, 0
	.reg .b32 temp_param_reg;
	.param .b64 param0;
	st.param.b64 	[param0+0], %rd3;
	.param .b64 retval0;
	call.uni (retval0), 
	_ZN2cl4sycl6detail25get_pointer_internal_typeIiLNS0_6access13address_spaceE1EEE__ns1PU3AS1iS6_, 
	(
	param0
	);
	ld.param.b64 	%rd4, [retval0+0];
	} // callseq 73
	st.param.b64 	[func_retval0+0], %rd4;
	ret;
}
                                        // -- End function
	// .globl	_ZNK2cl4sycl6detail15accessor_commonIfLi1ELNS0_6access4modeE1ELNS3_6targetE1ELNS3_11placeholderE0EE14get_device_ptrE__ns1v // -- Begin function _ZNK2cl4sycl6detail15accessor_commonIfLi1ELNS0_6access4modeE1ELNS3_6targetE1ELNS3_11placeholderE0EE14get_device_ptrE__ns1v
.func  (.param .b64 func_retval0) _ZNK2cl4sycl6detail15accessor_commonIfLi1ELNS0_6access4modeE1ELNS3_6targetE1ELNS3_11placeholderE0EE14get_device_ptrE__ns1v(
	.param .b64 _ZNK2cl4sycl6detail15accessor_commonIfLi1ELNS0_6access4modeE1ELNS3_6targetE1ELNS3_11placeholderE0EE14get_device_ptrE__ns1v_param_0
)                                       // @_ZNK2cl4sycl6detail15accessor_commonIfLi1ELNS0_6access4modeE1ELNS3_6targetE1ELNS3_11placeholderE0EE14get_device_ptrE__ns1v
{
	.local .align 8 .b8 	__local_depot29[8];
	.reg .b64 	%SP;
	.reg .b64 	%SPL;
	.reg .b64 	%rd<4>;

// %bb.0:
	mov.u64 	%SPL, __local_depot29;
	cvta.local.u64 	%SP, %SPL;
	ld.param.u64 	%rd1, [_ZNK2cl4sycl6detail15accessor_commonIfLi1ELNS0_6access4modeE1ELNS3_6targetE1ELNS3_11placeholderE0EE14get_device_ptrE__ns1v_param_0];
	st.u64 	[%SP+0], %rd1;
	ld.u64 	%rd2, [%SP+0];
	{ // callseq 74, 0
	.reg .b32 temp_param_reg;
	.param .b64 param0;
	st.param.b64 	[param0+0], %rd2;
	.param .b64 retval0;
	call.uni (retval0), 
	_ZNK2cl4sycl10device_argIfLi1ELNS0_6access4modeE1ELNS2_6targetE1ELNS2_11placeholderE0EE7get_ptrE__ns1v, 
	(
	param0
	);
	ld.param.b64 	%rd3, [retval0+0];
	} // callseq 74
	st.param.b64 	[func_retval0+0], %rd3;
	ret;
}
                                        // -- End function
	// .globl	_ZNK2cl4sycl10device_argIfLi1ELNS0_6access4modeE1ELNS2_6targetE1ELNS2_11placeholderE0EE7get_ptrE__ns1v // -- Begin function _ZNK2cl4sycl10device_argIfLi1ELNS0_6access4modeE1ELNS2_6targetE1ELNS2_11placeholderE0EE7get_ptrE__ns1v
.func  (.param .b64 func_retval0) _ZNK2cl4sycl10device_argIfLi1ELNS0_6access4modeE1ELNS2_6targetE1ELNS2_11placeholderE0EE7get_ptrE__ns1v(
	.param .b64 _ZNK2cl4sycl10device_argIfLi1ELNS0_6access4modeE1ELNS2_6targetE1ELNS2_11placeholderE0EE7get_ptrE__ns1v_param_0
)                                       // @_ZNK2cl4sycl10device_argIfLi1ELNS0_6access4modeE1ELNS2_6targetE1ELNS2_11placeholderE0EE7get_ptrE__ns1v
{
	.local .align 8 .b8 	__local_depot30[16];
	.reg .b64 	%SP;
	.reg .b64 	%SPL;
	.reg .b64 	%rd<6>;

// %bb.0:
	mov.u64 	%SPL, __local_depot30;
	cvta.local.u64 	%SP, %SPL;
	ld.param.u64 	%rd1, [_ZNK2cl4sycl10device_argIfLi1ELNS0_6access4modeE1ELNS2_6targetE1ELNS2_11placeholderE0EE7get_ptrE__ns1v_param_0];
	st.u64 	[%SP+0], %rd1;
	ld.u64 	%rd2, [%SP+0];
	ld.u64 	%rd3, [%rd2];
	add.u64 	%rd4, %SP, 8;
	{ // callseq 75, 0
	.reg .b32 temp_param_reg;
	.param .b64 param0;
	st.param.b64 	[param0+0], %rd4;
	.param .b64 param1;
	st.param.b64 	[param1+0], %rd3;
	call.uni 
	_ZN2cl4sycl9multi_ptrIfLNS0_6access13address_spaceE1EEC2E__ns1PU3AS1f, 
	(
	param0, 
	param1
	);
	} // callseq 75
	{ // callseq 76, 0
	.reg .b32 temp_param_reg;
	.param .b64 param0;
	st.param.b64 	[param0+0], %rd4;
	.param .b64 retval0;
	call.uni (retval0), 
	_ZNK2cl4sycl6detail14multi_ptr_baseIfLNS0_6access13address_spaceE1EEcvPfE__ns1v, 
	(
	param0
	);
	ld.param.b64 	%rd5, [retval0+0];
	} // callseq 76
	st.param.b64 	[func_retval0+0], %rd5;
	ret;
}
                                        // -- End function
	// .globl	_ZNK2cl4sycl6detail9item_base6get_idE__ns1i // -- Begin function _ZNK2cl4sycl6detail9item_base6get_idE__ns1i
.func  (.param .b64 func_retval0) _ZNK2cl4sycl6detail9item_base6get_idE__ns1i(
	.param .b64 _ZNK2cl4sycl6detail9item_base6get_idE__ns1i_param_0,
	.param .b32 _ZNK2cl4sycl6detail9item_base6get_idE__ns1i_param_1
)                                       // @_ZNK2cl4sycl6detail9item_base6get_idE__ns1i
{
	.local .align 8 .b8 	__local_depot31[16];
	.reg .b64 	%SP;
	.reg .b64 	%SPL;
	.reg .b32 	%r<3>;
	.reg .b64 	%rd<4>;

// %bb.0:
	mov.u64 	%SPL, __local_depot31;
	cvta.local.u64 	%SP, %SPL;
	ld.param.u32 	%r1, [_ZNK2cl4sycl6detail9item_base6get_idE__ns1i_param_1];
	ld.param.u64 	%rd1, [_ZNK2cl4sycl6detail9item_base6get_idE__ns1i_param_0];
	st.u64 	[%SP+0], %rd1;
	st.u32 	[%SP+8], %r1;
	ld.u64 	%rd2, [%SP+0];
	ld.u32 	%r2, [%SP+8];
	{ // callseq 77, 0
	.reg .b32 temp_param_reg;
	.param .b64 param0;
	st.param.b64 	[param0+0], %rd2;
	.param .b32 param1;
	st.param.b32 	[param1+0], %r2;
	.param .b64 retval0;
	call.uni (retval0), 
	_ZNK2cl4sycl6detail11index_arrayixE__ns1j, 
	(
	param0, 
	param1
	);
	ld.param.b64 	%rd3, [retval0+0];
	} // callseq 77
	st.param.b64 	[func_retval0+0], %rd3;
	ret;
}
                                        // -- End function
	// .globl	_ZN2cl4sycl6detail21index_array_operatorsILi1ENS0_2idEEC2E__ns1mmm // -- Begin function _ZN2cl4sycl6detail21index_array_operatorsILi1ENS0_2idEEC2E__ns1mmm
.func _ZN2cl4sycl6detail21index_array_operatorsILi1ENS0_2idEEC2E__ns1mmm(
	.param .b64 _ZN2cl4sycl6detail21index_array_operatorsILi1ENS0_2idEEC2E__ns1mmm_param_0,
	.param .b64 _ZN2cl4sycl6detail21index_array_operatorsILi1ENS0_2idEEC2E__ns1mmm_param_1,
	.param .b64 _ZN2cl4sycl6detail21index_array_operatorsILi1ENS0_2idEEC2E__ns1mmm_param_2,
	.param .b64 _ZN2cl4sycl6detail21index_array_operatorsILi1ENS0_2idEEC2E__ns1mmm_param_3
)                                       // @_ZN2cl4sycl6detail21index_array_operatorsILi1ENS0_2idEEC2E__ns1mmm
{
	.local .align 8 .b8 	__local_depot32[32];
	.reg .b64 	%SP;
	.reg .b64 	%SPL;
	.reg .b64 	%rd<9>;

// %bb.0:
	mov.u64 	%SPL, __local_depot32;
	cvta.local.u64 	%SP, %SPL;
	ld.param.u64 	%rd4, [_ZN2cl4sycl6detail21index_array_operatorsILi1ENS0_2idEEC2E__ns1mmm_param_3];
	ld.param.u64 	%rd3, [_ZN2cl4sycl6detail21index_array_operatorsILi1ENS0_2idEEC2E__ns1mmm_param_2];
	ld.param.u64 	%rd2, [_ZN2cl4sycl6detail21index_array_operatorsILi1ENS0_2idEEC2E__ns1mmm_param_1];
	ld.param.u64 	%rd1, [_ZN2cl4sycl6detail21index_array_operatorsILi1ENS0_2idEEC2E__ns1mmm_param_0];
	st.u64 	[%SP+0], %rd1;
	st.u64 	[%SP+8], %rd2;
	st.u64 	[%SP+16], %rd3;
	st.u64 	[%SP+24], %rd4;
	ld.u64 	%rd5, [%SP+0];
	ld.u64 	%rd6, [%SP+8];
	ld.u64 	%rd7, [%SP+16];
	ld.u64 	%rd8, [%SP+24];
	{ // callseq 78, 0
	.reg .b32 temp_param_reg;
	.param .b64 param0;
	st.param.b64 	[param0+0], %rd5;
	.param .b64 param1;
	st.param.b64 	[param1+0], %rd6;
	.param .b64 param2;
	st.param.b64 	[param2+0], %rd7;
	.param .b64 param3;
	st.param.b64 	[param3+0], %rd8;
	call.uni 
	_ZN2cl4sycl6detail16index_array_baseC2E__ns1mmm, 
	(
	param0, 
	param1, 
	param2, 
	param3
	);
	} // callseq 78
	ret;
}
                                        // -- End function
	// .globl	_ZN2cl4sycl6detail16index_array_baseC2E__ns1mmm // -- Begin function _ZN2cl4sycl6detail16index_array_baseC2E__ns1mmm
.func _ZN2cl4sycl6detail16index_array_baseC2E__ns1mmm(
	.param .b64 _ZN2cl4sycl6detail16index_array_baseC2E__ns1mmm_param_0,
	.param .b64 _ZN2cl4sycl6detail16index_array_baseC2E__ns1mmm_param_1,
	.param .b64 _ZN2cl4sycl6detail16index_array_baseC2E__ns1mmm_param_2,
	.param .b64 _ZN2cl4sycl6detail16index_array_baseC2E__ns1mmm_param_3
)                                       // @_ZN2cl4sycl6detail16index_array_baseC2E__ns1mmm
{
	.local .align 8 .b8 	__local_depot33[32];
	.reg .b64 	%SP;
	.reg .b64 	%SPL;
	.reg .b32 	%r<4>;
	.reg .b64 	%rd<12>;

// %bb.0:
	mov.u64 	%SPL, __local_depot33;
	cvta.local.u64 	%SP, %SPL;
	ld.param.u64 	%rd4, [_ZN2cl4sycl6detail16index_array_baseC2E__ns1mmm_param_3];
	ld.param.u64 	%rd3, [_ZN2cl4sycl6detail16index_array_baseC2E__ns1mmm_param_2];
	ld.param.u64 	%rd2, [_ZN2cl4sycl6detail16index_array_baseC2E__ns1mmm_param_1];
	ld.param.u64 	%rd1, [_ZN2cl4sycl6detail16index_array_baseC2E__ns1mmm_param_0];
	st.u64 	[%SP+0], %rd1;
	st.u64 	[%SP+8], %rd2;
	st.u64 	[%SP+16], %rd3;
	st.u64 	[%SP+24], %rd4;
	ld.u64 	%rd5, [%SP+0];
	ld.u64 	%rd6, [%SP+8];
	mov.u32 	%r1, 0;
	{ // callseq 79, 0
	.reg .b32 temp_param_reg;
	.param .b64 param0;
	st.param.b64 	[param0+0], %rd5;
	.param .b32 param1;
	st.param.b32 	[param1+0], %r1;
	.param .b64 retval0;
	call.uni (retval0), 
	_ZN2cl4sycl6detail11index_arrayixE__ns1j, 
	(
	param0, 
	param1
	);
	ld.param.b64 	%rd7, [retval0+0];
	} // callseq 79
	st.u64 	[%rd7], %rd6;
	ld.u64 	%rd8, [%SP+16];
	mov.u32 	%r2, 1;
	{ // callseq 80, 0
	.reg .b32 temp_param_reg;
	.param .b64 param0;
	st.param.b64 	[param0+0], %rd5;
	.param .b32 param1;
	st.param.b32 	[param1+0], %r2;
	.param .b64 retval0;
	call.uni (retval0), 
	_ZN2cl4sycl6detail11index_arrayixE__ns1j, 
	(
	param0, 
	param1
	);
	ld.param.b64 	%rd9, [retval0+0];
	} // callseq 80
	st.u64 	[%rd9], %rd8;
	ld.u64 	%rd10, [%SP+24];
	mov.u32 	%r3, 2;
	{ // callseq 81, 0
	.reg .b32 temp_param_reg;
	.param .b64 param0;
	st.param.b64 	[param0+0], %rd5;
	.param .b32 param1;
	st.param.b32 	[param1+0], %r3;
	.param .b64 retval0;
	call.uni (retval0), 
	_ZN2cl4sycl6detail11index_arrayixE__ns1j, 
	(
	param0, 
	param1
	);
	ld.param.b64 	%rd11, [retval0+0];
	} // callseq 81
	st.u64 	[%rd11], %rd10;
	ret;
}
                                        // -- End function

